
12154893.elf:     file format elf32-avr

Sections:
Idx Name          Size      VMA       LMA       File off  Algn
  0 .data         000002fc  00800100  00006b4c  00006be0  2**0
                  CONTENTS, ALLOC, LOAD, DATA
  1 .text         00006b4c  00000000  00000000  00000094  2**1
                  CONTENTS, ALLOC, LOAD, READONLY, CODE
  2 .bss          00000832  008003fc  008003fc  00006edc  2**0
                  ALLOC
  3 .comment      00000030  00000000  00000000  00006edc  2**0
                  CONTENTS, READONLY
  4 .note.gnu.avr.deviceinfo 0000003c  00000000  00000000  00006f0c  2**2
                  CONTENTS, READONLY
  5 .debug_aranges 00000210  00000000  00000000  00006f48  2**0
                  CONTENTS, READONLY, DEBUGGING
  6 .debug_info   000042aa  00000000  00000000  00007158  2**0
                  CONTENTS, READONLY, DEBUGGING
  7 .debug_abbrev 000010ba  00000000  00000000  0000b402  2**0
                  CONTENTS, READONLY, DEBUGGING
  8 .debug_line   00001994  00000000  00000000  0000c4bc  2**0
                  CONTENTS, READONLY, DEBUGGING
  9 .debug_frame  00000758  00000000  00000000  0000de50  2**2
                  CONTENTS, READONLY, DEBUGGING
 10 .debug_str    000009a3  00000000  00000000  0000e5a8  2**0
                  CONTENTS, READONLY, DEBUGGING
 11 .debug_loc    0000359a  00000000  00000000  0000ef4b  2**0
                  CONTENTS, READONLY, DEBUGGING
 12 .debug_ranges 000001f0  00000000  00000000  000124e5  2**0
                  CONTENTS, READONLY, DEBUGGING

Disassembly of section .text:

00000000 <__vectors>:
       0:	0c 94 06 2d 	jmp	0x5a0c	; 0x5a0c <__ctors_end>
       4:	0c 94 79 2f 	jmp	0x5ef2	; 0x5ef2 <__vector_1>
       8:	0c 94 24 2d 	jmp	0x5a48	; 0x5a48 <__bad_interrupt>
       c:	0c 94 24 2d 	jmp	0x5a48	; 0x5a48 <__bad_interrupt>
      10:	0c 94 24 2d 	jmp	0x5a48	; 0x5a48 <__bad_interrupt>
      14:	0c 94 24 2d 	jmp	0x5a48	; 0x5a48 <__bad_interrupt>
      18:	0c 94 24 2d 	jmp	0x5a48	; 0x5a48 <__bad_interrupt>
      1c:	0c 94 24 2d 	jmp	0x5a48	; 0x5a48 <__bad_interrupt>
      20:	0c 94 24 2d 	jmp	0x5a48	; 0x5a48 <__bad_interrupt>
      24:	0c 94 24 2d 	jmp	0x5a48	; 0x5a48 <__bad_interrupt>
      28:	0c 94 24 2d 	jmp	0x5a48	; 0x5a48 <__bad_interrupt>
      2c:	0c 94 24 2d 	jmp	0x5a48	; 0x5a48 <__bad_interrupt>
      30:	0c 94 24 2d 	jmp	0x5a48	; 0x5a48 <__bad_interrupt>
      34:	0c 94 24 2d 	jmp	0x5a48	; 0x5a48 <__bad_interrupt>
      38:	0c 94 24 2d 	jmp	0x5a48	; 0x5a48 <__bad_interrupt>
      3c:	0c 94 24 2d 	jmp	0x5a48	; 0x5a48 <__bad_interrupt>
      40:	0c 94 24 2d 	jmp	0x5a48	; 0x5a48 <__bad_interrupt>
      44:	0c 94 24 2d 	jmp	0x5a48	; 0x5a48 <__bad_interrupt>
      48:	0c 94 24 2d 	jmp	0x5a48	; 0x5a48 <__bad_interrupt>
      4c:	0c 94 24 2d 	jmp	0x5a48	; 0x5a48 <__bad_interrupt>
      50:	0c 94 24 2d 	jmp	0x5a48	; 0x5a48 <__bad_interrupt>
      54:	0c 94 24 2d 	jmp	0x5a48	; 0x5a48 <__bad_interrupt>
      58:	0c 94 24 2d 	jmp	0x5a48	; 0x5a48 <__bad_interrupt>
      5c:	0c 94 24 2d 	jmp	0x5a48	; 0x5a48 <__bad_interrupt>
      60:	0c 94 24 2d 	jmp	0x5a48	; 0x5a48 <__bad_interrupt>
      64:	0c 94 24 2d 	jmp	0x5a48	; 0x5a48 <__bad_interrupt>
      68:	0c 94 24 2d 	jmp	0x5a48	; 0x5a48 <__bad_interrupt>
      6c:	0c 94 24 2d 	jmp	0x5a48	; 0x5a48 <__bad_interrupt>
      70:	0c 94 24 2d 	jmp	0x5a48	; 0x5a48 <__bad_interrupt>
      74:	0c 94 24 2d 	jmp	0x5a48	; 0x5a48 <__bad_interrupt>
      78:	0c 94 24 2d 	jmp	0x5a48	; 0x5a48 <__bad_interrupt>
      7c:	0c 94 24 2d 	jmp	0x5a48	; 0x5a48 <__bad_interrupt>
      80:	0c 94 24 2d 	jmp	0x5a48	; 0x5a48 <__bad_interrupt>
      84:	0c 94 24 2d 	jmp	0x5a48	; 0x5a48 <__bad_interrupt>
      88:	0c 94 24 2d 	jmp	0x5a48	; 0x5a48 <__bad_interrupt>

0000008c <__trampolines_end>:
	...
      fc:	00 c0       	rjmp	.+0      	; 0xfe <__trampolines_end+0x72>
	...
     10a:	00 00       	nop
     10c:	00 c0       	rjmp	.+0      	; 0x10e <__trampolines_end+0x82>
	...
     11a:	00 00       	nop
     11c:	00 a0       	ldd	r0, Z+32	; 0x20
	...
     12a:	00 00       	nop
     12c:	00 90 00 00 	lds	r0, 0x0000	; 0x800000 <__TEXT_REGION_LENGTH__+0x7e0000>
     130:	00 00       	nop
     132:	00 00       	nop
     134:	0c 00       	.word	0x000c	; ????
     136:	00 00       	nop
     138:	00 00       	nop
     13a:	00 00       	nop
     13c:	00 98       	cbi	0x00, 0	; 0
     13e:	00 00       	nop
     140:	00 00       	nop
     142:	00 00       	nop
     144:	38 00       	.word	0x0038	; ????
     146:	11 fc       	sbrc	r1, 1
     148:	00 40       	sbci	r16, 0x00	; 0
     14a:	00 00       	nop
     14c:	00 cc       	rjmp	.-2048   	; 0xfffff94e <__eeprom_end+0xff7ef94e>
     14e:	00 00       	nop
     150:	00 00       	nop
     152:	00 03       	mulsu	r16, r16
     154:	f0 11       	cpse	r31, r0
     156:	90 04       	cpc	r9, r0
     158:	3c 40       	sbci	r19, 0x0C	; 12
     15a:	00 00       	nop
     15c:	00 67       	ori	r16, 0x70	; 112
     15e:	00 00       	nop
     160:	00 00       	nop
     162:	38 7f       	andi	r19, 0xF8	; 248
     164:	c0 11       	cpse	r28, r0
     166:	91 fc       	sbrc	r9, 1
     168:	44 40       	sbci	r20, 0x04	; 4
     16a:	00 00       	nop
     16c:	00 31       	cpi	r16, 0x10	; 16
     16e:	ff 00       	.word	0x00ff	; ????
     170:	00 00       	nop
     172:	27 ce       	rjmp	.-946    	; 0xfffffdc2 <__eeprom_end+0xff7efdc2>
     174:	c0 11       	cpse	r28, r0
     176:	91 00       	.word	0x0091	; ????
     178:	46 40       	sbci	r20, 0x06	; 6
     17a:	00 00       	nop
     17c:	00 38       	cpi	r16, 0x80	; 128
     17e:	01 00       	.word	0x0001	; ????
     180:	00 00       	nop
     182:	60 39       	cpi	r22, 0x90	; 144
     184:	80 1f       	adc	r24, r16
     186:	91 fe       	sbrs	r9, 1
     188:	42 40       	sbci	r20, 0x02	; 2
     18a:	00 00       	nop
     18c:	00 1f       	adc	r16, r16
     18e:	81 80       	ldd	r8, Z+1	; 0x01
     190:	00 00       	nop
     192:	40 c3       	rjmp	.+1664   	; 0x814 <beyoung7+0x388>
     194:	00 11       	cpse	r16, r0
     196:	90 88       	ldd	r9, Z+16	; 0x10
     198:	42 40       	sbci	r20, 0x02	; 2
     19a:	00 00       	nop
     19c:	00 10       	cpse	r0, r0
     19e:	e0 80       	ld	r14, Z
     1a0:	00 00       	nop
     1a2:	41 86       	std	Z+9, r4	; 0x09
     1a4:	00 11       	cpse	r16, r0
     1a6:	97 ff       	sbrs	r25, 7
     1a8:	46 40       	sbci	r20, 0x06	; 6
     1aa:	00 00       	nop
     1ac:	00 18       	sub	r0, r0
     1ae:	10 80       	ld	r1, Z
     1b0:	00 00       	nop
     1b2:	81 0c       	add	r8, r1
     1b4:	00 11       	cpse	r16, r0
     1b6:	90 00       	.word	0x0090	; ????
     1b8:	64 40       	sbci	r22, 0x04	; 4
     1ba:	00 00       	nop
     1bc:	00 08       	sbc	r0, r0
     1be:	0c c0       	rjmp	.+24     	; 0x1d8 <__trampolines_end+0x14c>
     1c0:	00 00       	nop
     1c2:	81 08       	sbc	r8, r1
     1c4:	00 1f       	adc	r16, r16
     1c6:	90 fc       	sbrc	r9, 0
     1c8:	38 40       	sbci	r19, 0x08	; 8
     1ca:	00 00       	nop
     1cc:	00 08       	sbc	r0, r0
     1ce:	02 40       	sbci	r16, 0x02	; 2
     1d0:	00 01       	movw	r0, r0
     1d2:	83 10       	cpse	r8, r3
     1d4:	00 00       	nop
     1d6:	11 04       	cpc	r1, r1
     1d8:	00 40       	sbci	r16, 0x00	; 0
     1da:	00 00       	nop
     1dc:	00 08       	sbc	r0, r0
     1de:	03 40       	sbci	r16, 0x03	; 3
     1e0:	00 01       	movw	r0, r0
     1e2:	02 10       	cpse	r0, r2
     1e4:	00 00       	nop
     1e6:	11 04       	cpc	r1, r1
     1e8:	00 40       	sbci	r16, 0x00	; 0
     1ea:	00 00       	nop
     1ec:	00 08       	sbc	r0, r0
     1ee:	01 60       	ori	r16, 0x01	; 1
     1f0:	00 03       	mulsu	r16, r16
     1f2:	06 30       	cpi	r16, 0x06	; 6
     1f4:	00 00       	nop
     1f6:	10 f8       	bld	r1, 0
     1f8:	00 40       	sbci	r16, 0x00	; 0
     1fa:	00 00       	nop
     1fc:	00 08       	sbc	r0, r0
     1fe:	01 20       	and	r0, r1
     200:	00 02       	muls	r16, r16
     202:	0c 20       	and	r0, r12
	...
     20c:	00 08       	sbc	r0, r0
     20e:	01 98       	cbi	0x00, 1	; 0
     210:	00 06       	cpc	r0, r16
     212:	38 20       	and	r3, r8
	...
     21c:	00 0b       	sbc	r16, r16
     21e:	00 cc       	rjmp	.-2048   	; 0xfffffa20 <__eeprom_end+0xff7efa20>
     220:	00 0c       	add	r0, r0
     222:	60 20       	and	r6, r0
	...
     22c:	00 1f       	adc	r16, r16
     22e:	00 6e       	ori	r16, 0xE0	; 224
     230:	00 19       	sub	r16, r0
     232:	c0 20       	and	r12, r0
	...
     23c:	00 39       	cpi	r16, 0x90	; 144
     23e:	00 37       	cpi	r16, 0x70	; 112
     240:	00 7f       	andi	r16, 0xF0	; 240
     242:	00 30       	cpi	r16, 0x00	; 0
	...
     24c:	00 01       	movw	r0, r0
     24e:	00 1f       	adc	r16, r16
     250:	01 f8       	bld	r0, 1
     252:	02 10       	cpse	r0, r2
	...
     25c:	00 01       	movw	r0, r0
     25e:	38 30       	cpi	r19, 0x08	; 8
     260:	00 20       	and	r0, r0
     262:	03 90       	.word	0x9003	; ????
     264:	00 10       	cpse	r0, r0
     266:	30 0b       	sbc	r19, r16
     268:	00 00       	nop
     26a:	00 00       	nop
     26c:	00 01       	movw	r0, r0
     26e:	68 40       	sbci	r22, 0x08	; 8
     270:	00 10       	cpse	r0, r0
     272:	02 f0       	brmi	.+0      	; 0x274 <__trampolines_end+0x1e8>
     274:	00 10       	cpse	r0, r0
     276:	33 cb       	rjmp	.-2458   	; 0xfffff8de <__eeprom_end+0xff7ef8de>
     278:	00 00       	nop
     27a:	00 00       	nop
     27c:	00 01       	movw	r0, r0
     27e:	8c c0       	rjmp	.+280    	; 0x398 <__trampolines_end+0x30c>
     280:	00 18       	sub	r0, r0
     282:	44 00       	.word	0x0044	; ????
     284:	00 10       	cpse	r0, r0
     286:	38 4b       	sbci	r19, 0xB8	; 184
     288:	00 00       	nop
     28a:	00 00       	nop
     28c:	00 01       	movw	r0, r0
     28e:	05 80       	ldd	r0, Z+5	; 0x05
     290:	00 09       	sbc	r16, r0
     292:	c4 00       	.word	0x00c4	; ????
     294:	00 10       	cpse	r0, r0
     296:	30 4b       	sbci	r19, 0xB0	; 176
     298:	00 00       	nop
     29a:	00 00       	nop
     29c:	00 00       	nop
     29e:	05 00       	.word	0x0005	; ????
     2a0:	00 0f       	add	r16, r16
     2a2:	6c 00       	.word	0x006c	; ????
     2a4:	00 1f       	adc	r16, r16
     2a6:	b0 4f       	sbci	r27, 0xF0	; 240
     2a8:	00 00       	nop
     2aa:	00 00       	nop
     2ac:	00 00       	nop
     2ae:	06 00       	.word	0x0006	; ????
     2b0:	00 00       	nop
     2b2:	18 00       	.word	0x0018	; ????
     2b4:	00 00       	nop
     2b6:	30 cb       	rjmp	.-2464   	; 0xfffff918 <__eeprom_end+0xff7ef918>
	...
     2c4:	00 0f       	add	r16, r16
     2c6:	f0 8b       	std	Z+16, r31	; 0x10
	...
     2d4:	00 00       	nop
     2d6:	33 0b       	sbc	r19, r19
	...
     2e4:	00 00       	nop
     2e6:	36 0b       	sbc	r19, r22
	...
     2f4:	00 0f       	add	r16, r16
     2f6:	f0 0b       	sbc	r31, r16
	...
     304:	00 08       	sbc	r0, r0
     306:	00 0b       	sbc	r16, r16
	...
     314:	00 0f       	add	r16, r16
     316:	f0 03       	fmuls	r23, r16
	...

0000048c <beyoung7>:
	...
     51c:	00 00 00 ff ff 00 00 00 00 00 00 00 00 00 00 00     ................
     52c:	00 00 0f c0 00 f0 00 00 00 00 00 00 00 00 00 00     ................
     53c:	00 00 39 00 00 4e 00 00 00 00 00 00 00 00 00 00     ..9..N..........
     54c:	00 00 33 00 00 63 00 00 00 02 3f 80 08 00 00 00     ..3..c....?.....
     55c:	00 00 22 00 00 27 c0 00 02 32 00 87 88 00 00 00     .."..'...2......
     56c:	00 01 e2 00 00 21 60 00 02 32 3f 88 88 00 00 00     .....!`..2?.....
     57c:	00 01 46 00 00 20 98 00 02 32 20 08 c8 00 00 00     ..F.. ...2 .....
     58c:	00 06 44 00 00 30 c6 00 03 f2 3f c8 48 00 00 00     ..D..0....?.H...
     59c:	00 0c 44 00 00 10 c3 00 02 32 11 08 48 00 00 00     ..D......2..H...
     5ac:	00 20 88 3f ff f8 20 80 02 32 ff e8 c8 00 00 00     . .?.. ..2......
     5bc:	00 70 8f c0 00 08 10 40 02 32 00 0c 88 00 00 00     .p.....@.2......
     5cc:	00 60 88 00 00 04 18 60 03 f2 1f 87 08 00 00 00     .`.....`........
     5dc:	00 c1 88 00 00 04 18 20 00 02 20 80 08 00 00 00     ....... .. .....
     5ec:	00 81 08 00 00 04 08 20 00 02 20 80 08 00 00 00     ....... .. .....
     5fc:	00 81 08 00 00 04 08 20 00 02 1f 00 08 00 00 00     ....... ........
     60c:	00 81 08 00 00 04 0c 30 00 00 00 00 00 00 00 00     .......0........
     61c:	00 81 08 00 00 04 0c 30 00 00 00 00 00 00 00 00     .......0........
     62c:	00 81 08 00 00 04 04 10 00 00 00 00 00 00 00 00     ................
     63c:	00 41 08 00 00 04 04 1c 00 00 00 00 00 00 00 00     .A..............
     64c:	00 f9 0f ff ff fc 06 14 00 00 00 00 00 00 00 00     ................
     65c:	00 af 08 00 00 04 02 13 00 00 00 00 00 00 00 00     ................
     66c:	00 a5 08 00 00 0c 02 11 01 fc 3f 80 00 00 00 00     ..........?.....
     67c:	01 a5 08 00 00 08 03 70 01 04 20 00 00 00 00 00     .......p.. .....
     68c:	00 27 08 00 00 08 07 d8 01 04 3f 80 00 00 00 00     .'........?.....
     69c:	00 06 08 00 00 08 03 6c 01 fc 20 00 00 00 00 00     .......l.. .....
     6ac:	00 06 08 00 00 08 03 26 00 20 3f 80 00 00 00 00     .......&. ?.....
     6bc:	00 02 08 00 00 08 02 20 00 20 04 00 00 00 00 00     ....... . ......
     6cc:	00 02 08 00 00 08 02 00 07 ff ff e0 00 00 00 00     ................
     6dc:	00 02 0c 00 00 18 06 00 00 00 00 00 00 00 00 00     ................
     6ec:	00 02 04 00 00 30 04 00 01 fe 3f 80 00 00 00 00     .....0....?.....
     6fc:	00 02 07 ff ff d0 04 00 01 06 20 80 00 00 00 00     .......... .....
     70c:	00 02 04 00 00 10 04 00 01 06 20 80 00 00 00 00     .......... .....
     71c:	00 03 02 00 00 20 04 00 01 fe 1f 00 00 00 00 00     ..... ..........
     72c:	00 03 02 00 00 20 04 00 00 00 00 00 00 00 00 00     ..... ..........
     73c:	00 03 03 00 00 20 04 00 00 00 00 00 00 00 00 00     ..... ..........
     74c:	00 01 81 80 00 20 04 00 00 00 00 00 00 00 00 00     ..... ..........
     75c:	00 00 80 c0 00 40 04 00 00 00 00 00 00 00 00 00     .....@..........
     76c:	00 00 80 30 00 c0 04 00 00 00 00 00 00 00 00 00     ...0............
     77c:	00 00 80 1f ff 80 04 00 00 00 00 00 00 00 00 00     ................
     78c:	00 00 c0 00 00 00 0c 00 00 00 00 00 00 00 00 00     ................
     79c:	00 00 40 00 00 00 08 00 00 00 00 00 00 00 00 00     ..@.............
     7ac:	00 00 40 00 00 00 08 00 00 00 00 00 00 00 00 00     ..@.............
     7bc:	00 01 80 00 18 00 08 00 00 00 00 00 00 00 00 00     ................
     7cc:	00 0e 00 00 30 00 18 00 00 00 00 00 00 00 00 00     ....0...........
     7dc:	00 0f ff ff ff ff f0 00 00 00 00 00 00 00 00 00     ................
	...

0000088c <beyoung6>:
	...
     90c:	00 00 00 0f ff f8 00 03 00 00 00 00 00 00 00 00     ................
     91c:	00 80 00 38 00 0f 00 0e 80 00 00 00 00 00 00 00     ...8............
     92c:	00 c0 00 e0 00 01 c0 18 80 00 00 00 00 00 00 00     ................
     93c:	00 e0 01 80 00 00 70 30 80 00 00 00 00 00 00 00     ......p0........
     94c:	00 f0 7e 00 00 00 58 c0 80 00 00 00 00 00 00 00     ..~...X.........
     95c:	00 4f cc 00 00 00 49 80 e0 00 00 00 00 00 00 00     .O....I.........
     96c:	00 40 30 00 00 00 0f 00 30 00 00 00 00 00 00 00     .@0.....0.......
     97c:	00 40 60 00 00 00 06 00 30 00 02 3f 80 08 00 00     .@`.....0..?....
     98c:	00 40 40 00 00 00 03 01 c0 02 32 00 87 88 00 00     .@@.......2.....
     99c:	00 e0 80 00 00 00 01 0f 40 02 32 3f 88 88 00 00     ........@.2?....
     9ac:	00 b1 80 00 00 00 01 b8 40 02 32 20 08 c8 00 00     ........@.2 ....
     9bc:	00 9f 00 00 00 00 00 e0 40 03 f2 3f c8 48 00 00     ........@..?.H..
     9cc:	00 83 03 f8 00 3f 80 c0 40 02 32 11 08 48 00 00     .....?..@.2..H..
     9dc:	00 82 03 f0 00 3f 80 60 c0 02 32 ff e8 c8 00 00     .....?.`..2.....
     9ec:	00 c6 00 00 00 00 00 21 80 02 32 00 0c 88 00 00     .......!..2.....
     9fc:	00 64 00 00 00 00 00 17 00 03 f2 1f 87 08 00 00     .d..............
     a0c:	00 3c 00 00 00 00 00 1c 00 00 02 20 80 08 00 00     .<......... ....
     a1c:	00 04 00 00 00 00 00 18 00 00 02 20 80 08 00 00     ........... ....
     a2c:	00 04 03 e0 00 1f 00 08 00 00 02 1f 00 08 00 00     ................
     a3c:	00 04 07 e0 00 3f 00 0c 00 00 00 00 00 00 00 00     .....?..........
     a4c:	00 0c 0e 70 00 73 80 04 00 00 00 00 00 00 00 00     ...p.s..........
     a5c:	00 08 0f f0 00 7f 80 04 00 00 00 00 00 00 00 00     ................
     a6c:	00 08 0f f0 00 7f 80 06 00 00 00 00 00 00 00 00     ................
     a7c:	00 08 0f f0 00 7f 80 02 00 00 00 00 00 00 00 00     ................
     a8c:	00 18 0f f0 00 7f 80 02 00 00 00 00 00 00 00 00     ................
     a9c:	00 10 0f e0 00 7f 00 02 00 01 c2 3f 80 00 00 00     ...........?....
     aac:	00 10 07 c0 00 3e 00 02 00 02 22 00 80 00 00 00     .....>....".....
     abc:	00 10 00 00 40 00 00 02 00 02 3e 00 80 00 00 00     ....@.....>.....
     acc:	00 10 00 00 e0 00 00 02 00 06 22 00 80 00 00 00     ..........".....
     adc:	00 10 00 03 30 00 00 02 00 03 e2 ff e0 00 00 00     ....0...........
     aec:	00 10 c8 16 1f 00 12 06 00 00 82 04 00 00 00 00     ................
     afc:	00 10 88 1e 01 c0 12 04 00 00 fe 04 00 00 00 00     ................
     b0c:	00 10 88 02 01 80 1b 04 00 00 02 3f c0 00 00 00     ...........?....
     b1c:	00 10 00 02 01 00 09 04 00 00 02 00 c0 00 00 00     ................
     b2c:	00 10 00 02 03 00 00 04 00 00 fe 3f c0 00 00 00     ...........?....
     b3c:	00 10 00 03 02 00 00 0c 00 00 80 20 00 00 00 00     ........... ....
     b4c:	00 10 00 01 fe 00 00 08 00 00 fe 3f c0 00 00 00     ...........?....
     b5c:	00 18 00 00 00 00 00 08 00 00 00 00 00 00 00 00     ................
     b6c:	00 0c 00 00 00 00 00 18 00 00 00 00 00 00 00 00     ................
     b7c:	00 07 00 00 00 00 00 10 00 00 00 00 00 00 00 00     ................
     b8c:	00 01 80 00 00 00 00 30 00 00 00 00 00 00 00 00     .......0........
     b9c:	00 00 c0 00 00 00 00 60 00 00 00 00 00 00 00 00     .......`........
     bac:	00 00 30 00 00 00 00 40 00 00 00 00 00 00 00 00     ..0....@........
     bbc:	00 00 18 00 00 00 01 80 00 00 00 00 00 00 00 00     ................
     bcc:	00 00 0e 00 00 00 07 00 00 00 00 00 00 00 00 00     ................
     bdc:	00 00 03 c0 00 00 78 00 00 00 00 00 00 00 00 00     ......x.........
     bec:	00 00 00 7f 00 03 c0 00 00 00 00 00 00 00 00 00     ................
     bfc:	00 00 00 01 ff fe 00 00 00 00 00 00 00 00 00 00     ................
	...

00000c8c <beyoung5>:
	...
     d40:	00 1c 00 00 00 00 00 00 00 00 00 00 00 00 00 00     ................
     d50:	00 34 00 00 00 00 00 00 00 00 00 00 00 00 00 00     .4..............
     d60:	00 66 00 00 00 00 00 00 00 00 00 00 00 00 00 00     .f..............
     d70:	00 c2 00 00 00 00 00 00 00 00 00 00 00 00 00 00     ................
     d80:	01 82 00 00 01 1f c0 04 00 80 00 00 00 00 00 00     ................
     d90:	03 02 00 01 19 00 43 c4 7c 80 00 00 00 00 00 00     ......C.|.......
     da0:	0c 01 00 01 19 1f c4 44 84 80 00 00 00 00 00 00     .......D........
     db0:	18 01 00 01 19 10 04 64 84 80 00 00 00 00 00 00     .......d........
     dc0:	30 01 00 01 f9 1f e4 24 84 80 00 00 00 00 00 00     0......$........
     dd0:	40 01 00 01 19 08 84 24 7c 80 00 00 00 00 00 01     @......$|.......
     de0:	80 01 00 01 19 7f f4 64 00 80 00 00 00 00 00 03     .......d........
     df0:	00 01 00 01 19 00 06 44 00 80 00 00 00 00 00 0c     .......D........
     e00:	00 01 00 01 f9 0f c3 85 fe 80 00 00 00 00 00 18     ................
     e10:	00 01 00 00 01 10 40 04 00 80 00 00 00 00 00 30     ......@........0
     e20:	00 01 00 00 01 10 40 04 00 80 00 00 00 00 00 40     ......@........@
     e30:	00 01 00 00 01 0f 80 04 00 80 00 00 00 00 00 c0     ................
     e40:	00 01 00 00 00 00 00 00 00 00 00 00 00 00 03 00     ................
     e50:	00 01 00 00 00 00 00 00 00 00 00 00 00 00 1c 00     ................
     e60:	00 01 00 00 00 00 00 00 00 00 00 00 00 00 e0 00     ................
     e70:	00 01 00 00 00 00 00 00 00 00 00 00 00 07 80 00     ................
     e80:	00 01 00 00 00 00 00 00 00 00 00 00 00 1c 00 00     ................
     e90:	00 01 00 00 00 00 00 00 00 00 00 00 00 10 00 00     ................
     ea0:	00 01 00 00 00 00 20 00 00 00 00 00 00 10 00 00     ...... .........
     eb0:	00 02 00 01 ef 3e 20 00 00 00 00 00 00 18 00 00     .....> .........
     ec0:	00 02 00 00 63 02 20 00 00 00 00 00 00 0c 00 00     ....c. .........
     ed0:	00 06 00 00 63 02 20 00 00 00 00 00 00 04 00 00     ....c. .........
     ee0:	00 04 00 00 63 3e 20 00 00 00 00 00 00 06 00 00     ....c> .........
     ef0:	00 0c 00 00 52 20 20 00 00 00 00 00 00 03 00 00     ....R  .........
     f00:	00 08 00 00 52 20 20 00 00 00 00 00 00 01 80 00     ....R  .........
     f10:	00 18 00 00 90 20 20 00 00 00 00 00 00 00 80 00     .....  .........
     f20:	00 30 00 00 10 3f a0 00 00 00 00 00 00 00 c0 00     .0...?..........
     f30:	00 60 00 03 ff 80 20 00 00 00 00 00 00 00 40 00     .`.... .......@.
     f40:	00 40 00 00 00 00 20 00 00 00 00 00 00 00 60 00     .@.... .......`.
     f50:	00 c0 00 00 00 00 20 00 00 00 00 00 00 00 20 00     ...... ....... .
     f60:	01 80 00 00 00 00 00 00 00 00 00 00 00 00 30 00     ..............0.
     f70:	03 00 00 00 00 00 00 00 00 00 00 00 00 00 10 00     ................
     f80:	06 00 00 00 00 00 00 00 00 00 00 00 00 00 10 00     ................
     f90:	1c 00 00 00 00 00 00 00 00 00 00 00 00 00 10 00     ................
     fa0:	f0 00 00 00 00 00 00 00 00 00 00 00 00 00 08 07     ................
     fb0:	80 00 00 00 00 00 00 00 00 00 00 00 00 00 0f fc     ................
	...

0000108c <beyoung4>:
	...
    10ec:	00 00 00 20 00 00 00 00 00 00 00 00 00 00 00 00     ... ............
    10fc:	00 00 00 20 00 00 00 00 00 00 00 00 00 00 00 00     ... ............
    110c:	00 00 00 20 00 00 00 00 00 00 00 00 00 00 00 00     ... ............
    111c:	00 00 00 70 00 00 00 00 00 00 00 00 00 00 00 00     ...p............
    112c:	00 00 00 20 00 00 00 00 00 00 00 00 00 00 00 00     ... ............
    113c:	00 1b 80 20 00 00 00 00 00 00 00 00 00 00 00 00     ... ............
    114c:	00 0e 00 00 00 00 00 00 00 00 00 00 00 00 00 00     ................
    115c:	00 1b 00 00 00 00 00 00 00 00 00 00 00 00 00 00     ................
    116c:	00 10 07 f0 00 00 00 04 7f 00 10 02 00 00 00 00     ................
    117c:	00 00 1c 1e 00 00 04 64 01 0f 11 f2 00 00 00 00     .......d........
    118c:	00 00 70 03 80 00 04 64 7f 11 12 12 00 00 00 00     ..p....d........
    119c:	00 00 c0 00 c0 00 04 64 40 11 92 12 00 00 00 00     .......d@.......
    11ac:	00 03 00 00 70 00 07 e4 7f 90 92 12 00 00 00 00     ....p...........
    11bc:	00 06 00 00 18 00 04 64 22 10 91 f2 00 00 00 00     .......d".......
    11cc:	00 04 00 00 0c 00 04 65 ff d1 90 02 00 00 00 00     .......e........
    11dc:	00 04 00 00 06 00 04 64 00 19 10 02 00 00 00 00     .......d........
    11ec:	00 06 1c 00 03 00 07 e4 3f 0e 17 fa 00 00 00 00     ........?.......
    11fc:	00 02 64 00 01 00 00 04 41 00 10 02 00 00 00 00     ..d.....A.......
    120c:	00 03 c4 00 01 00 00 04 41 00 10 02 00 00 00 00     ........A.......
    121c:	00 01 82 00 01 80 00 04 3e 00 10 02 00 00 00 00     ........>.......
    122c:	00 00 02 00 00 80 00 00 00 00 00 00 00 00 00 00     ................
    123c:	00 00 02 00 00 80 00 00 00 00 00 00 00 00 00 00     ................
    124c:	00 00 02 00 00 80 00 00 00 00 00 00 00 00 00 00     ................
    125c:	00 00 03 f0 00 80 00 00 00 00 00 00 00 00 00 00     ................
    126c:	00 00 00 1e 00 80 00 00 00 00 00 00 00 00 00 00     ................
    127c:	00 00 00 02 00 40 00 00 00 00 00 00 00 00 00 00     .....@..........
    128c:	00 00 00 02 00 40 00 40 7f 1f f0 00 40 08 00 00     .....@.@....@...
    129c:	00 00 00 06 00 40 03 f8 01 04 40 7c 47 c8 ff 00     .....@....@|G...
    12ac:	00 00 00 0c 00 40 02 08 7f 04 40 44 48 48 10 00     .....@....@DHH..
    12bc:	00 00 00 18 00 40 02 0c 40 0b b0 47 c8 48 3c 00     .....@..@..G.H<.
    12cc:	00 00 00 70 00 40 02 0c 7f 91 10 c6 48 49 c7 00     ...p.@......HI..
    12dc:	00 00 00 10 00 40 03 18 7f 81 00 c6 47 c9 01 00     .....@......G...
    12ec:	00 00 00 08 00 c0 01 f0 00 3f f8 47 c0 08 00 00     .........?.G....
    12fc:	00 00 00 07 00 80 00 41 ff c0 00 6c 40 0b ff 80     .......A...l@...
    130c:	00 00 00 03 00 a0 00 40 40 0f f0 38 5f e8 10 00     .......@@..8_...
    131c:	00 00 00 04 01 80 07 fe 40 00 30 00 40 08 10 00     ........@.0.@...
    132c:	00 00 00 0c 01 00 00 00 40 00 30 00 40 08 10 00     ........@.0.@...
    133c:	00 00 00 38 03 00 00 00 7f 80 30 00 40 08 10 00     ...8......0.@...
    134c:	00 00 00 60 02 00 00 00 00 00 00 00 00 00 00 00     ...`............
    135c:	00 00 00 c0 0c 00 00 00 00 00 00 00 00 00 00 00     ................
    136c:	00 00 03 80 18 00 00 00 00 00 00 00 00 00 00 00     ................
    137c:	00 00 06 00 f0 00 00 00 00 00 00 00 00 00 00 00     ................
    138c:	00 00 0f ff 80 00 00 00 00 00 00 00 00 00 00 00     ................
	...

0000148c <beyoung3>:
	...
    1520:	10 00 00 00 00 00 00 00 00 00 00 00 00 00 00 00     ................
    1530:	12 00 00 00 00 00 00 00 00 00 00 00 00 00 00 00     ................
    1540:	1e 00 00 00 00 00 00 00 00 00 00 00 00 00 00 00     ................
    1550:	38 00 00 00 00 00 00 00 00 00 00 00 00 00 00 00     8...............
    1560:	48 00 00 01 1f c0 04 00 80 00 00 00 00 00 00 00     H...............
    1570:	08 00 01 19 00 43 c4 7c 80 00 00 00 00 00 0f fc     .....C.|........
    1580:	08 00 01 19 1f c4 44 84 80 00 00 00 00 00 18 04     ......D.........
    1590:	00 00 01 19 10 04 64 84 80 00 00 00 00 00 60 0c     ......d.......`.
    15a0:	00 00 01 f9 1f e4 24 84 80 00 00 00 03 60 c0 0e     ......$......`..
    15b0:	00 00 01 19 08 84 24 7c 80 00 00 00 01 c1 00 03     ......$|........
    15c0:	80 00 01 19 7f f4 64 00 80 00 00 00 00 83 00 00     ......d.........
    15d0:	e0 20 01 19 00 06 44 00 80 00 00 00 01 e2 00 00     . ....D.........
    15e0:	60 20 01 f9 0f c3 85 fe 80 00 00 00 01 26 0c 00     ` ...........&..
    15f0:	40 f8 00 01 10 40 04 00 80 00 00 00 01 04 1c 00     @....@..........
    1600:	c0 20 00 01 10 40 04 00 80 00 00 00 00 04 30 03     . ...@........0.
    1610:	00 40 00 01 0f 80 04 00 80 00 00 00 00 04 20 02     .@............ .
    1620:	00 40 00 00 00 00 00 00 00 00 00 00 00 08 40 03     .@............@.
	...
    163c:	00 08 40 00 c0 00 00 00 00 00 00 00 00 00 00 00     ..@.............
    164c:	00 08 40 00 78 00 00 00 00 00 00 00 00 00 00 00     ..@.x...........
    165c:	00 08 40 00 0c 00 00 00 00 00 00 00 00 00 00 00     ..@.............
    166c:	00 08 40 00 08 00 00 00 00 00 00 00 00 00 00 00     ..@.............
    167c:	00 08 40 00 18 00 00 f1 3f e0 00 80 10 00 00 00     ..@.....?.......
    168c:	00 08 60 00 70 00 01 99 08 80 f8 8f 91 fe 00 00     ..`.p...........
    169c:	00 08 20 00 c0 00 01 09 08 80 88 90 90 20 00 00     .. .......... ..
    16ac:	00 0c 00 01 80 00 01 99 17 60 8f 90 90 78 00 00     .........`...x..
    16bc:	00 04 00 00 80 00 00 f1 22 21 8c 90 93 8e 00 00     ........"!......
    16cc:	00 04 08 00 e0 00 00 61 02 01 8c 8f 92 02 00 00     .......a........
    16dc:	00 06 00 00 30 00 03 fd 7f f0 8f 80 10 00 00 00     ....0...........
    16ec:	00 02 00 00 1c 00 00 01 00 00 d8 80 17 ff 00 00     ................
    16fc:	00 03 00 00 06 00 00 c1 1f e0 70 bf d0 20 00 00     ..........p.. ..
    170c:	00 01 80 00 02 00 00 c0 00 60 00 80 10 20 00 00     .........`... ..
    171c:	00 00 80 00 06 00 00 c0 00 60 00 80 10 20 00 00     .........`... ..
    172c:	00 00 c0 00 0c 00 00 ff 00 60 00 80 10 20 00 00     .........`... ..
    173c:	00 00 60 00 08 00 00 00 00 00 00 00 00 00 00 00     ..`.............
    174c:	00 00 30 00 38 00 00 00 00 00 00 00 00 00 00 00     ..0.8...........
    175c:	00 00 1f 00 e0 00 00 00 00 00 00 00 00 00 00 00     ................
    176c:	00 00 01 ff 80 00 00 00 00 00 00 00 00 00 00 00     ................
	...

0000188c <beyoung2>:
	...
    18bc:	00 00 07 f0 00 00 00 00 00 00 00 00 00 00 00 00     ................
    18cc:	00 00 0c 18 00 00 00 00 00 00 00 00 00 00 00 00     ................
    18dc:	00 00 08 0c 00 00 00 00 00 00 00 00 00 00 00 00     ................
    18ec:	00 00 08 06 00 00 00 00 00 00 00 00 00 00 00 00     ................
    18fc:	00 00 08 02 00 00 00 00 00 00 00 00 00 00 00 00     ................
    190c:	00 00 08 02 00 00 00 00 00 00 00 00 00 00 00 00     ................
    191c:	00 00 08 01 00 00 00 00 00 00 00 00 00 00 00 00     ................
    192c:	00 00 08 01 00 00 00 00 00 00 00 00 00 00 00 00     ................
    193c:	00 00 08 01 18 00 00 00 00 00 00 00 00 00 00 00     ................
    194c:	00 00 08 01 38 00 00 00 00 00 00 00 00 00 00 00     ....8...........
    195c:	00 00 08 01 6c 00 00 00 00 00 00 00 00 00 00 00     ....l...........
    196c:	00 00 08 01 44 00 00 00 00 00 00 00 00 00 00 00     ....D...........
    197c:	00 00 08 01 c4 00 00 00 00 00 00 00 00 00 00 00     ................
    198c:	00 00 08 01 84 00 00 00 00 00 00 00 00 00 00 00     ................
    199c:	00 00 0c 01 04 00 00 00 63 fc 00 60 06 00 00 00     ........c..`....
    19ac:	00 00 0e 01 84 00 00 63 60 0c 3e 63 e6 00 00 00     .......c`.>c....
    19bc:	00 00 06 00 04 00 00 63 63 fc 66 66 36 00 00 00     .......cc.ff6...
    19cc:	00 00 06 00 04 00 00 63 63 00 63 66 36 00 00 00     .......cc.cf6...
    19dc:	00 00 02 00 0c 00 00 7f 63 fe 63 66 36 00 00 00     ........c.cf6...
    19ec:	00 00 02 00 08 00 00 63 61 98 63 63 e6 00 00 00     .......ca.cc....
    19fc:	00 00 02 00 10 00 00 63 6f ff 63 60 06 00 00 00     .......co.c`....
    1a0c:	00 00 03 00 30 78 00 63 60 00 66 60 06 00 00 00     ....0x.c`.f`....
    1a1c:	00 00 01 80 30 cc 00 7f 61 fc 3c 6f fe 00 00 00     ....0...a.<o....
    1a2c:	00 00 01 80 20 84 00 00 63 0c 00 60 06 00 00 00     .... ...c..`....
    1a3c:	00 00 01 80 21 82 00 00 63 0c 00 60 06 00 00 00     ....!...c..`....
    1a4c:	00 00 00 80 31 02 00 00 61 f8 00 60 06 00 00 00     ....1...a..`....
    1a5c:	00 00 00 80 11 02 00 00 00 00 00 00 00 00 00 00     ................
    1a6c:	00 00 00 80 13 02 00 00 00 00 00 00 00 00 00 00     ................
    1a7c:	00 00 00 80 1e 02 00 00 00 00 00 00 00 00 00 00     ................
    1a8c:	00 00 00 c0 1c 02 00 00 00 00 00 00 00 00 00 00     ................
    1a9c:	00 00 00 40 08 02 00 04 07 f1 ff 04 a4 00 00 00     ...@............
    1aac:	00 00 00 c0 00 02 00 3f 80 10 44 07 bc 00 00 00     .......?..D.....
    1abc:	00 00 00 60 00 06 00 20 87 f0 44 04 a4 00 00 00     ...`... ..D.....
    1acc:	00 00 00 60 00 04 00 20 c4 00 bb 07 bc 00 00 00     ...`... ........
    1adc:	00 00 00 60 00 0c 00 20 c7 f9 11 00 00 00 00 00     ...`... ........
    1aec:	00 00 00 20 00 18 00 31 87 f8 10 0f fe 00 00 00     ... ...1........
    1afc:	00 00 00 20 00 30 00 1f 00 03 ff 80 40 00 00 00     ... .0......@...
    1b0c:	00 00 00 20 00 20 00 04 1f fc 00 03 fc 00 00 00     ... . ..........
    1b1c:	00 00 00 30 00 60 00 04 04 00 ff 00 0c 00 00 00     ...0.`..........
    1b2c:	00 00 00 10 00 40 00 ff e4 00 03 03 fc 00 00 00     .....@..........
    1b3c:	00 00 00 10 00 c0 00 00 04 00 03 02 00 00 00 00     ................
    1b4c:	00 00 00 08 00 80 00 00 07 f8 03 03 fc 00 00 00     ................
    1b5c:	00 00 00 08 00 c0 00 00 00 00 00 00 00 00 00 00     ................
    1b6c:	00 00 00 04 00 60 00 00 00 00 00 00 00 00 00 00     .....`..........
    1b7c:	00 00 00 04 00 20 00 00 00 00 00 00 00 00 00 00     ..... ..........
    1b8c:	00 00 00 06 00 30 00 00 00 00 00 00 00 00 00 00     .....0..........
    1b9c:	00 00 00 06 00 18 00 00 00 00 00 00 00 00 00 00     ................
    1bac:	00 00 00 02 00 08 00 00 00 00 00 00 00 00 00 00     ................
    1bbc:	00 00 00 01 00 08 00 00 00 00 00 00 00 00 00 00     ................
    1bcc:	00 00 00 01 00 08 00 00 00 00 00 00 00 00 00 00     ................
    1bdc:	00 00 00 01 80 08 00 00 00 00 00 00 00 00 00 00     ................
    1bec:	00 00 00 00 80 08 00 00 00 00 00 00 00 00 00 00     ................
    1bfc:	00 00 00 00 c0 18 00 00 00 00 00 00 00 00 00 00     ................
    1c0c:	00 00 00 00 7f f0 00 00 00 00 00 00 00 00 00 00     ................
	...

00001c8c <beyoung1>:
	...
    1cbc:	00 00 07 f0 00 00 00 00 00 00 00 00 00 00 00 00     ................
    1ccc:	00 00 0c 18 00 00 00 00 00 00 00 00 00 00 00 00     ................
    1cdc:	00 00 08 0c 00 00 00 00 00 00 00 00 00 00 00 00     ................
    1cec:	00 00 08 06 03 00 00 00 00 00 00 00 00 00 00 00     ................
    1cfc:	00 00 08 02 03 00 00 00 00 00 00 00 00 00 00 00     ................
    1d0c:	00 00 08 02 03 00 00 00 00 00 00 00 00 00 00 00     ................
    1d1c:	00 00 08 01 03 38 00 00 00 00 00 00 00 00 00 00     .....8..........
    1d2c:	00 00 08 01 00 f0 00 00 00 00 00 00 00 00 00 00     ................
    1d3c:	00 00 08 01 01 e0 00 00 00 00 00 00 00 00 00 00     ................
    1d4c:	00 01 f8 01 01 80 00 00 00 00 00 00 00 00 00 00     ................
    1d5c:	00 03 00 01 00 00 00 00 00 00 00 00 00 00 00 00     ................
    1d6c:	00 02 00 01 00 00 00 00 00 00 00 00 00 00 00 00     ................
    1d7c:	00 03 00 01 00 00 00 00 00 00 00 00 00 00 00 00     ................
    1d8c:	00 01 80 01 00 00 00 00 00 00 00 00 00 00 00 00     ................
    1d9c:	00 00 c0 01 00 00 00 00 63 fc 00 60 06 00 00 00     ........c..`....
    1dac:	00 00 7e 01 80 00 00 63 60 0c 3e 63 e6 00 00 00     ..~....c`.>c....
    1dbc:	00 00 02 00 80 00 00 63 63 fc 66 66 36 00 00 00     .......cc.ff6...
    1dcc:	00 00 02 00 80 00 00 63 63 00 63 66 36 00 00 00     .......cc.cf6...
    1ddc:	00 00 03 00 c0 00 00 7f 63 fe 63 66 36 00 00 00     ........c.cf6...
    1dec:	00 00 01 00 40 00 00 63 61 98 63 63 e6 00 00 00     ....@..ca.cc....
    1dfc:	00 00 01 00 40 00 00 63 6f ff 63 60 06 00 00 00     ....@..co.c`....
    1e0c:	00 00 01 00 60 00 00 63 60 00 66 60 06 00 00 00     ....`..c`.f`....
    1e1c:	00 00 01 00 20 00 00 7f 61 fc 3c 6f fe 00 00 00     .... ...a.<o....
    1e2c:	00 03 ff 00 20 00 00 00 63 0c 00 60 06 00 00 00     .... ...c..`....
    1e3c:	00 02 00 00 20 00 00 00 63 0c 00 60 06 00 00 00     .... ...c..`....
    1e4c:	00 02 00 00 30 00 00 00 61 f8 00 60 06 00 00 00     ....0...a..`....
    1e5c:	00 02 00 00 10 00 00 00 00 00 00 00 00 00 00 00     ................
    1e6c:	00 02 00 00 10 00 00 00 00 00 00 00 00 00 00 00     ................
    1e7c:	00 02 00 00 10 00 00 00 00 00 00 00 00 00 00 00     ................
    1e8c:	00 02 00 00 18 00 00 00 00 00 00 00 00 00 00 00     ................
    1e9c:	00 02 00 00 08 00 00 00 00 00 00 00 00 00 00 00     ................
    1eac:	00 03 7f c0 08 00 00 00 00 00 00 00 00 00 00 00     ................
    1ebc:	00 01 80 40 0c 00 00 3e 67 fe 06 f6 00 00 00 00     ...@...>g.......
    1ecc:	00 00 00 40 04 00 00 63 61 98 07 fe 00 00 00 00     ...@...ca.......
    1edc:	00 00 00 60 04 00 00 63 61 98 06 f6 00 00 00 00     ...`...ca.......
    1eec:	00 00 00 20 06 00 00 63 63 fc 07 fe 00 00 00 00     ... ...cc.......
    1efc:	00 00 00 20 02 00 00 3e 66 66 00 00 00 00 00 00     ... ...>ff......
    1f0c:	00 00 00 20 02 00 00 0c 60 60 0f ff 00 00 00 00     ... ....``......
    1f1c:	00 00 00 30 03 00 00 ff ef ff 00 60 00 00 00 00     ...0.......`....
    1f2c:	00 00 00 10 01 00 00 00 60 00 03 fc 00 00 00 00     ........`.......
    1f3c:	00 00 00 10 01 80 00 30 63 fc 00 0c 00 00 00 00     .......0c.......
    1f4c:	00 00 00 08 00 80 00 30 00 0c 03 fc 00 00 00 00     .......0........
    1f5c:	00 00 00 08 00 c0 00 30 00 0c 03 00 00 00 00 00     .......0........
    1f6c:	00 00 00 04 00 60 00 3f e0 0c 03 fe 00 00 00 00     .....`.?........
    1f7c:	00 00 00 04 00 20 00 00 00 00 00 00 00 00 00 00     ..... ..........
    1f8c:	00 00 00 06 00 30 00 00 00 00 00 00 00 00 00 00     .....0..........
    1f9c:	00 00 00 06 00 18 00 00 00 00 00 00 00 00 00 00     ................
    1fac:	00 00 00 02 00 08 00 00 00 00 00 00 00 00 00 00     ................
    1fbc:	00 00 00 01 00 08 00 00 00 00 00 00 00 00 00 00     ................
    1fcc:	00 00 00 01 00 08 00 00 00 00 00 00 00 00 00 00     ................
    1fdc:	00 00 00 01 80 08 00 00 00 00 00 00 00 00 00 00     ................
    1fec:	00 00 00 00 80 08 00 00 00 00 00 00 00 00 00 00     ................
    1ffc:	00 00 00 00 c0 18 00 00 00 00 00 00 00 00 00 00     ................
    200c:	00 00 00 00 7f f0 00 00 00 00 00 00 00 00 00 00     ................
	...

0000208c <fish_5>:
	...
    20c0:	38 00 00 00 00 00 00 7e 00 00 00 00 00 60 ff c1     8......~.....`..
    20d0:	80 00 00 00 f1 c7 e7 e0 00 00 00 ff 80 7f e0 00     ................
    20e0:	00 01 ff 00 3e 70 00 00 03 ce 00 3c 30 00 00 07     ....>p.....<0...
    20f0:	84 00 08 30 00 00 0f 80 00 00 30 00 00 0f 00 00     ...0......0.....
    2100:	00 30 00 00 0c 00 00 00 38 00 00 0c 00 20 00 9c     .0......8.... ..
    2110:	00 00 0c 00 e0 01 cc 00 00 1c 00 e0 01 ce 00 00     ................
    2120:	38 20 00 00 0e 00 00 70 20 00 00 0f 00 00 e0 00     8 .....p .......
    2130:	00 00 07 80 01 cc 00 07 e0 03 c0 03 9c 00 07 e0     ................
    2140:	01 e0 03 de 0c 07 e0 00 e0 03 de 0f 00 01 e0 70     ...............p
    2150:	07 ff 8e 00 01 e0 70 07 ff c4 00 00 00 e0 03 f3     ......p.........
    2160:	c0 00 00 00 c0 03 c3 c0 00 00 00 c0 01 f7 c0 00     ................
    2170:	00 01 c0 00 ff e1 e0 03 c3 c0 00 3f f0 c0 00 8f     ...........?....
    2180:	00 00 1f f0 00 00 0e 00 00 1f f0 00 40 0e 00 00     ............@...
    2190:	7b f0 00 00 07 00 00 f3 f8 00 00 03 c0 00 f1 fc     {...............
    21a0:	07 00 31 c0 00 38 1e 00 00 73 c0 00 1c 1f 80 03     ..1..8...s......
    21b0:	ff 80 00 0f 0f f0 03 fe 00 00 07 07 fe 00 38 00     ..............8.
    21c0:	00 03 07 ff 9c 30 00 00 03 8f ff fe 30 00 00 01     .....0......0...
    21d0:	9f 70 7f f0 00 00 01 fb f8 e1 e0 00 00 00 f1 fd     .p..............
    21e0:	c0 00 00 00 00 60 0f 80 00 00 00 00 00 0f 80 00     .....`..........
    21f0:	00 00 00 00 07 00 00 00 00 00 00 00 00 00 00 00     ................
	...

00002214 <fish_4>:
	...
    2228:	00 00 03 f0 0f 80 c0 00 00 0f ff 07 c0 c0 00 00     ................
    2238:	3e 1f c0 e1 c0 00 00 f0 01 f0 e7 c0 00 01 e0 00     >...............
    2248:	78 ff c0 00 03 80 00 1f f1 e0 00 07 00 00 1f 00     x...............
    2258:	e0 00 0e 00 00 0e 00 60 00 1c 00 00 0e 00 60 00     .......`......`.
    2268:	18 00 00 0c 38 60 00 30 01 f8 1c 38 60 00 30 03     ....8`.0...8`.0.
    2278:	fe 18 78 60 00 30 07 0f 18 78 60 00 60 0e 03 98     ..x`.0...x`.`...
    2288:	78 e0 00 60 1c 01 98 70 c0 00 60 38 01 f8 70 c0     x..`...p..`8..p.
    2298:	00 60 78 00 f0 e0 c0 00 60 70 00 f0 c1 c0 00 60     .`x.....`p.....`
    22a8:	70 00 f0 c1 80 00 60 f0 11 f0 c1 80 00 60 f0 19     p.....`......`..
    22b8:	e0 c1 80 00 60 f0 1f e0 c0 00 00 60 f0 1f e1 c3     ....`......`....
    22c8:	00 00 60 f8 0e e1 87 00 00 60 f8 00 c3 86 00 00     ..`......`......
    22d8:	60 78 00 c3 0e 00 00 70 78 01 c7 0c 00 00 30 78     `x.....px.....0x
    22e8:	01 86 1c 00 00 30 7c 03 86 38 00 00 18 7c 03 0c     .....0|..8...|..
    22f8:	30 00 00 18 3e 07 0c 70 00 00 1c 3e 06 0c e0 00     0...>..p...>....
    2308:	00 0c 3f 06 1c c0 00 00 0e 1f ee 19 c0 00 00 06     ..?.............
    2318:	1f fc 19 80 00 00 07 0f fc 1b 80 00 00 03 0f f8     ................
    2328:	1b 00 00 00 03 87 f8 3f 00 00 00 01 87 f8 3e 00     .......?......>.
    2338:	00 00 01 e3 f8 7e 00 00 00 00 fb f0 fc 00 00 00     .....~..........
    2348:	00 3f f0 f8 00 00 00 00 0f e0 f8 00 00 00 00 03     .?..............
    2358:	c0 f0 00 00 00 00 01 c0 e0 00 00 00 00 01 81 c0     ................
    2368:	00 00 00 00 01 83 80 00 00 00 00 0f 9f 00 00 00     ................
    2378:	00 00 1f fc 00 00 00 00 00 0f f0 00 00 00 00 00     ................
	...

0000239c <fish_3>:
	...
    23ac:	01 ff 00 00 00 00 00 7f ff c0 00 00 00 01 ff 0f     ................
    23bc:	f0 00 00 00 03 c0 0f f8 00 00 00 07 00 0f fc 00     ................
    23cc:	00 00 0e 03 07 ee 00 00 00 1d f3 00 06 00 00 00     ................
    23dc:	1f fb 00 07 00 00 00 3b f0 00 03 00 00 00 37 f0     .......;......7.
    23ec:	07 03 00 00 00 37 e0 07 83 00 00 00 73 c0 07 c3     .....7......s...
    23fc:	00 00 00 71 80 03 c3 00 00 00 30 00 00 83 00 00     ...q......0.....
    240c:	00 30 00 00 07 00 00 00 30 00 06 06 00 00 00 30     .0......0......0
    241c:	60 64 0e 00 00 00 38 f0 78 0c 00 00 00 18 f0 3c     `d....8.x......<
    242c:	18 00 00 00 1c 70 7e 38 00 00 00 0c 70 46 70 03     .....p~8....pFp.
    243c:	e0 00 0c 30 40 e0 07 f0 00 0e 00 00 f0 0e 70 00     ...0@.........p.
    244c:	3f 00 00 fc 0c 70 00 3f 80 01 fe 0c f0 00 30 00     ?....p.?......0.
    245c:	00 0f dc e0 00 3f c0 3f ff fd c0 00 3f ff ff ff     .....?.?....?...
    246c:	fd 80 00 7f fe 3f 07 fd c0 00 e2 1c 00 0f ee c0     .....?..........
    247c:	00 e7 8e 3e 0f e6 e0 00 ff 9e 3f 07 f6 70 00 7f     ...>......?..p..
    248c:	9f 33 83 bf 30 00 3f 9f 73 c3 9b 30 00 1d fb f3     .3..0.?.s..0....
    249c:	e7 9c 30 00 39 fb fb ff 8c 30 00 31 fb b9 ff cc     ..0.9....0.1....
    24ac:	30 00 39 b9 98 cc ce 30 00 1f b9 9c cc c6 30 00     0.9....0......0.
    24bc:	0f d9 ce ec c6 70 00 0f dc e6 6c 66 60 00 06 ce     .....p....lf`...
    24cc:	66 6c 67 e0 00 0e c6 76 6c 67 c0 00 3c c6 66 6c     flg....vlg..<.fl
    24dc:	63 80 00 f9 8e 66 6c 60 00 01 e3 8c 6e 6c 60 00     c....fl`....nl`.
    24ec:	01 cf 1c dc fc 60 00 01 9c 19 d8 f8 60 00 01 98     .....`......`...
    24fc:	19 d8 f8 60 00 01 98 1c dc fc 60 00 01 98 0c cc     ...`......`.....
    250c:	cc e0 00 01 d8 0f ce ce c0 00 00 d8 07 87 c6 c0     ................
    251c:	00 00 f8 07 07 87 c0 00                             ........

00002524 <fish_2>:
	...
    252c:	00 80 00 00 fe 00 00 01 80 0c 01 ff c0 00 01 82     ................
    253c:	1c 61 df f0 00 07 87 3c 61 9f f8 00 07 0f 78 61     .a.....<a.....xa
    254c:	9c 3c 00 0e 1e 70 ff 80 38 00 1c 3e f1 ff e0 78     .<...p..8..>...x
    255c:	00 38 7c ff f8 e0 70 00 30 7c ff 3c 60 38 00 70     .8|...p.0|.<`8.p
    256c:	f9 f8 0e ff 78 00 60 f9 fc 0f ff f0 00 e1 ff fe     ....x.`.........
    257c:	07 81 c0 00 c1 ff 07 0f 00 00 01 c1 f8 03 0f c0     ................
    258c:	00 01 81 fc 03 1f 80 00 03 00 ff 83 18 00 00 03     ................
    259c:	01 c7 c3 38 08 00 06 03 80 e3 30 7e 00 06 07 00     ...8......0~....
    25ac:	63 7f fc 00 06 0f 00 63 ff fc 00 0e 3f c0 67 ff     c......c....?.g.
    25bc:	f8 00 0c ff e0 77 ff f0 00 0c fe f0 7e 00 00 00     .....w......~...
    25cc:	0c c7 38 7e 00 f0 00 1d 83 9c 7f ff f0 00 19 81     ..8~............
    25dc:	fe 7f ff f0 00 1b 80 ff ec ff 00 00 1b 00 3f ce     ..............?.
    25ec:	7c 00 00 1b 00 01 c7 f0 00 00 1f 00 00 e3 c0 00     |...............
    25fc:	00 1f 40 00 c0 18 00 00 1f e0 01 c0 18 00 00 1f     ..@.............
    260c:	00 01 80 38 00 00 0e 0c 03 80 30 00 00 0e 0c 07     ...8......0.....
    261c:	00 70 00 00 0f 00 1e 00 60 00 00 07 00 78 00 e0     .p......`....x..
    262c:	00 00 03 c3 f0 00 c0 00 00 01 ff c0 01 c0 00 00     ................
    263c:	00 fe 00 03 80 00 00 00 e0 00 07 00 00 00 00 60     ...............`
    264c:	00 1e 00 00 00 00 60 00 38 00 00 00 00 70 00 f0     ......`.8....p..
    265c:	00 00 00 00 3c 03 e0 00 00 00 00 1f ff 80 00 00     ....<...........
    266c:	00 00 07 fe 00 00 00 00 00 00 00 00 00 00 00 00     ................
	...

000026ac <fish_1>:
	...
    26e0:	07 c0 00 00 00 00 00 7f ff 80 00 00 00 01 fc 7f     ................
    26f0:	c0 00 00 00 07 c0 00 f0 00 00 00 1f 00 00 70 00     ..............p.
    2700:	00 00 3c 00 00 38 00 00 00 70 00 00 18 00 00 00     ..<..8...p......
    2710:	e0 00 00 1c 00 00 00 c0 00 00 0c 00 00 01 c0 00     ................
    2720:	00 0c 00 00 01 80 00 00 0c 00 00 03 81 f0 00 1c     ................
    2730:	00 00 03 07 fc 00 18 70 00 07 0f fc 00 38 f0 00     .......p.....8..
    2740:	06 1f fe 00 31 f0 00 0e 3f fe 00 3f 98 00 1c 3f     ....1...?..?...?
    2750:	fe 00 3e 18 00 38 7f fe 00 18 18 00 70 3f fc 00     ..>..8......p?..
    2760:	00 18 1f e3 3f f8 00 00 18 1f 83 9f f0 00 00 18     ....?...........
    2770:	38 03 1f e0 00 1e 18 38 00 00 70 00 3f f8 3f e0     8......8..p.?.?.
    2780:	00 7e 00 3b f8 1f f8 00 1f 80 38 70 00 3c 00 03     .~.;......8p.<..
    2790:	80 1c 00 00 0f 00 01 80 0c 00 00 07 87 ff 80 0e     ................
    27a0:	00 00 01 e3 ff 00 0e 00 00 00 f0 00 00 1c 00 00     ................
    27b0:	00 fc 00 00 78 00 00 00 ff 80 07 f0 00 00 00 77     ....x..........w
    27c0:	ff ff c0 00 00 00 31 ff fc 00 00 00 00 3b 01 40     ......1......;.@
    27d0:	00 00 00 00 1f 00 00 00 00 00 00 0f 00 00 00 00     ................
    27e0:	00 00 04 00 00 00 00 00 00 00 00 00 00 00 00 00     ................
	...

00002834 <fish_0>:
    2834:	00 00 00 00 00 e0 00 00 00 00 00 01 ff 80 00 00     ................
    2844:	00 00 03 bf 80 00 00 00 01 ff 01 c0 00 00 00 03     ................
    2854:	ff 00 c0 00 00 00 07 0e 00 c0 00 00 0c 1f 00 10     ................
    2864:	c0 00 00 3e 1c 00 3e c0 00 00 7f 18 00 3f e0 00     ...>..>......?..
    2874:	00 e3 78 00 3f e0 00 7f e7 fc 0c 3f f0 00 ff c6     ..x.?......?....
    2884:	7e 0c 3f b0 01 c1 ce 76 0e 3f b8 03 81 fc 77 06     ~.?....v.?....w.
    2894:	0f 18 07 00 7c e3 82 0e 38 06 00 1d e3 c0 0c 30     ....|...8......0
    28a4:	0e 00 0f c1 c0 00 30 0c 0f 07 c3 c0 00 30 1c 1f     ......0......0..
    28b4:	c0 67 c0 30 70 18 3b e0 67 80 70 60 18 37 70 7f     .g.0p.;.g.p`.7p.
    28c4:	80 70 60 1c 37 30 3d c0 e0 60 1c 37 30 39 e0 e0     .p`.70=..`.709..
    28d4:	e0 1e 32 38 39 fc 08 c0 3e 30 30 39 be 0f c0 3f     ..289...>009...?
    28e4:	3c 70 7f 8e 0f 80 3f 9f f0 ff 06 06 00 3f 87 c3     <p....?......?..
    28f4:	fc 06 06 00 3f c0 07 fc 06 06 00 3f f8 fe ec 0e     ....?......?....
    2904:	06 00 3f ff fc ce 1c 07 00 3f 87 80 c7 f8 03 00     ..?......?......
    2914:	3f 80 01 c3 f1 83 00 3d e0 03 c0 13 83 00 3c f0     ?......=......<.
    2924:	0f 80 1f 87 00 1c 38 1e 00 1f 86 00 1e 1c 1e 00     ......8.........
    2934:	1f 86 00 1e 0e 3e 00 0f 8e 00 1f 07 ff 00 1f 8c     .....>..........
    2944:	00 0f 83 ff 00 7f 0c 00 0f c0 ff 80 7e 1e 00 0c     ............~...
    2954:	e0 7f 00 70 1f 80 0c 70 1e 00 00 3f c0 0c 38 00     ...p...p...?..8.
    2964:	00 00 77 c0 0c 1e 00 00 00 ff 80 06 0f 00 00 01     ..w.............
    2974:	fe 00 07 03 e0 00 03 f8 00 03 00 fc 00 1f f0 00     ................
    2984:	03 c0 3f f0 7c e0 00 01 f0 1f ff f8 c0 00 00 7c     ..?.|..........|
    2994:	04 2f f1 c0 00 00 1f ff c0 7f 80 00 00 07 ff e1     ./..............
    29a4:	ff 00 00 00 00 02 ff c0 00 00 00 00 00 3e 00 00     .............>..
	...

000029bc <main_char_back>:
    29bc:	00 00 1c 38 17 e8 10 0a 10 0a 18 1a 0c 32 1f fe     ...8.........2..
    29cc:	16 6c 36 6c 27 e4 3c fc 0e 74 0b d4 0e 74 00 00     .l6l'.<..t...t..

000029dc <main_char_right>:
    29dc:	01 00 03 80 02 f0 04 10 08 5c 08 0c 08 08 04 10     .........\......
    29ec:	03 e0 7d 50 47 78 76 28 17 f8 1f f0 01 40 01 c0     ..}PGxv(.....@..

000029fc <main_char_left>:
    29fc:	00 80 01 c0 0f 40 08 20 3a 10 30 90 10 90 08 a0     .....@. :.0.....
    2a0c:	07 c0 0a be 1f e2 15 6e 1f e8 0f f8 03 80 03 80     .......n........

00002a1c <main_char_front>:
    2a1c:	00 00 1c 38 17 e8 50 08 52 48 59 98 4c 30 7f f8     ...8..P.RHY.L0..
    2a2c:	36 68 32 4c 27 e4 3d bc 2f f0 2a 50 2e 70 00 00     6h2L'.=./.*P.p..

00002a3c <Rsea_map2>:
	...
    2a44:	00 00 00 3f 00 00 00 00 00 00 00 00 00 00 00 00     ...?............
    2a54:	00 00 00 7f c0 00 00 00 00 00 00 00 00 00 00 00     ................
    2a64:	00 00 00 71 f0 00 00 00 00 00 00 00 00 00 00 00     ...q............
    2a74:	00 00 00 30 7c 00 00 00 00 00 00 00 00 00 00 00     ...0|...........
    2a84:	00 00 01 f8 1f c0 00 00 00 00 00 00 30 00 00 00     ............0...
    2a94:	00 00 07 f8 0f f0 00 00 00 00 00 00 fe 00 00 00     ................
    2aa4:	00 00 1f 00 00 7c 00 00 00 00 00 03 ff 80 00 00     .....|..........
    2ab4:	00 00 3c 00 00 1e 00 00 00 00 00 0f 83 e0 78 00     ..<...........x.
    2ac4:	00 00 70 00 00 07 00 00 00 00 00 1e 00 ff f0 00     ..p.............
    2ad4:	f8 00 e0 00 00 03 80 00 00 00 00 18 00 3f c0 00     .............?..
    2ae4:	f8 01 c0 00 00 01 87 c0 00 00 00 00 01 f0 00 01     ................
    2af4:	dc 01 80 00 00 61 9f fc 00 00 00 00 03 f8 00 01     .....a..........
    2b04:	98 03 80 00 00 61 98 7c 00 00 00 00 03 fc 00 01     .....a.|........
    2b14:	f8 07 00 00 00 01 c0 18 00 00 00 00 03 7e 01 81     .............~..
    2b24:	f0 06 03 ff 00 00 e0 00 00 00 00 00 07 1f 07 e0     ................
    2b34:	e0 0e 0f ff 00 00 70 00 00 00 00 00 06 0f 87 f0     ......p.........
    2b44:	e3 fc 1e 3c 00 00 38 00 00 00 00 00 06 07 e7 f0     ...<..8.........
    2b54:	6f fc 38 38 3e 00 18 00 00 00 00 00 0e 03 f3 fc     o.88>...........
    2b64:	0e 00 70 38 ff e0 1c 00 00 00 00 00 0c 01 f8 fe     ..p8............
    2b74:	0c 00 70 3f e3 ff 8c 00 00 00 00 00 0c 00 fc 00     ..p?............
    2b84:	0c 00 30 1f 00 3f fc 00 38 0f f8 00 0c 00 7e 00     ..0..?..8.....~.
    2b94:	0f fc 38 00 00 0f fc 00 7f ff f8 00 18 00 3f 0f     ..8...........?.
    2ba4:	07 ff 18 00 00 07 e0 00 2f f8 00 00 18 00 3f 8f     ......../.....?.
    2bb4:	c0 07 f8 00 00 00 00 00 01 80 00 00 18 00 1f cf     ................
    2bc4:	e0 01 f8 00 00 00 00 00 00 00 00 00 38 00 1f c7     ............8...
    2bd4:	f0 00 00 00 00 00 00 00 00 00 00 00 30 00 0f e3     ............0...
    2be4:	fc 00 00 00 00 00 00 00 00 00 00 00 30 00 0f f0     ............0...
    2bf4:	7c 00 00 00 00 00 00 00 00 00 00 18 60 00 07 f0     |...........`...
	...
    2c0c:	00 00 00 3c 60 00 07 f8 00 07 80 00 3c 00 00 00     ...<`.......<...
    2c1c:	00 00 00 3c e0 00 03 fc 00 0f c0 7f ff 80 00 00     ...<............
    2c2c:	00 00 00 7e c0 00 03 fc 00 1c ff ff e7 80 00 00     ...~............
    2c3c:	00 00 00 77 c0 00 01 fc 00 38 3f c3 80 00 00 00     ...w.....8?.....
    2c4c:	00 00 00 67 c0 00 01 fe 00 20 00 00 00 00 00 00     ...g..... ......
    2c5c:	00 00 00 63 c0 00 01 ff 00 00 00 00 00 00 00 00     ...c............
    2c6c:	00 00 03 e3 cf c0 00 ff 00 00 00 00 00 00 00 00     ................
    2c7c:	00 fc 07 f1 ff c0 00 ff 80 00 00 00 00 00 00 00     ................
    2c8c:	00 ff 0f f9 fb 80 00 7f 80 00 00 00 00 00 00 00     ................
    2c9c:	00 7f 0c f8 c3 80 00 3f c0 00 00 00 00 00 00 00     .......?........
    2cac:	00 3c 0d 9c 07 00 00 3f c0 00 00 00 00 00 00 00     .<.....?........
    2cbc:	00 0e 0c 0c 0e 00 00 1f e0 00 00 00 00 00 00 00     ................
    2ccc:	00 0e 1c 18 0c 00 00 0f e0 00 00 00 00 00 00 00     ................
    2cdc:	00 0e 7f f8 1c 00 00 0f f0 00 00 00 00 00 00 00     ................
    2cec:	00 1c f7 f0 1f c0 00 07 f0 00 00 00 00 00 00 00     ................
    2cfc:	00 38 c7 00 1f e0 00 07 f8 00 00 00 00 00 00 00     .8..............
    2d0c:	00 f0 ce 00 30 e0 1f f7 f8 7f 00 00 00 00 00 00     ....0...........
    2d1c:	00 fd ce 00 30 e0 1f ff fc ff c0 00 00 00 00 00     ....0...........
    2d2c:	00 ff ce 00 3f c0 10 1f fd c1 c0 00 00 00 00 00     ....?...........
    2d3c:	00 0f 9c 00 3f 80 00 03 fe 00 00 00 00 00 00 00     ....?...........
    2d4c:	00 0f dc 00 38 00 00 01 fe 00 00 00 00 00 00 00     ....8...........
    2d5c:	00 0c dc 00 70 00 00 01 fe 00 00 00 00 00 00 00     ....p...........
    2d6c:	00 00 fc 00 60 00 00 00 ff 00 00 00 00 00 00 00     ....`...........
    2d7c:	00 00 f8 30 60 00 00 00 ff 00 00 00 00 00 00 00     ...0`...........
    2d8c:	00 00 f8 f8 60 00 00 00 ff 00 00 00 00 00 00 00     ....`...........
    2d9c:	00 00 f9 fc 7e 00 00 00 ff 00 00 07 c0 03 80 00     ....~...........
    2dac:	00 0f e3 8f ff b0 00 00 ff 00 00 1f e0 0f e0 1e     ................
    2dbc:	00 0f ff 07 f3 f0 00 00 ff 00 00 08 7c fe f0 7f     ............|...
    2dcc:	00 00 7e 01 80 e0 00 00 ff 00 00 00 1f f8 3f f0     ..~...........?.
    2ddc:	00 00 1c 00 00 00 00 00 ff 00 00 00 07 80 1f e0     ................
	...
    2df4:	ff 00 00 00 00 00 03 00 00 00 00 00 00 00 00 00     ................
    2e04:	ff 00 00 00 00 00 00 00 00 00 00 00 00 00 00 00     ................
    2e14:	ff 00 00 00 00 00 00 00 00 00 00 00 00 00 00 00     ................
    2e24:	ff 00 00 00 00 00 00 00 00 00 00 00 00 00 00 00     ................
    2e34:	7f 80 00 00 00 00 00 00                             ........

00002e3c <Rsea_map1>:
	...
    2e54:	00 00 00 06 00 00 00 00 00 04 01 80 00 00 00 00     ................
    2e64:	00 00 00 ff 00 00 00 00 00 0f 81 e0 00 00 00 00     ................
    2e74:	00 00 03 fe 00 03 e0 00 00 07 e1 f8 00 00 00 00     ................
    2e84:	00 00 07 9e 60 0f f8 00 00 03 f8 fc 00 00 00 00     ....`...........
    2e94:	00 00 0e 1f f8 1c 3c 00 00 01 fc ec 00 00 00 00     ......<.........
    2ea4:	30 00 1c 3f f8 38 0c 00 00 00 ce ee 00 00 00 00     0..?.8..........
    2eb4:	7c 00 18 3c 70 30 06 00 00 00 c7 e6 00 00 00 00     |..<p0..........
    2ec4:	7f 00 18 18 60 70 07 00 00 00 c3 e7 00 00 00 00     ....`p..........
    2ed4:	0f c0 18 00 e0 e0 03 00 00 00 c1 e3 00 00 00 00     ................
    2ee4:	03 c0 18 00 e3 e0 00 00 00 00 c0 c2 00 00 1f f8     ................
    2ef4:	01 e0 18 00 7f 80 00 00 00 00 c0 00 00 00 ff ff     ................
    2f04:	80 60 38 00 7e 00 00 00 00 01 98 00 00 3f ff ff     .`8.~........?..
    2f14:	e0 60 10 00 00 00 00 00 00 03 98 00 00 ff ff ff     .`..............
    2f24:	fc 00 00 00 00 00 00 00 00 1f 38 00 03 ff 07 ff     ..........8.....
    2f34:	ff 00 00 00 00 00 00 00 00 3c 70 00 03 c0 00 0f     .........<p.....
    2f44:	ff 80 00 00 00 00 00 00 00 00 60 00 07 00 00 01     ..........`.....
    2f54:	ff 80 00 00 00 00 00 00 00 00 e0 00 0e 00 00 00     ................
    2f64:	7f c0 00 00 00 00 00 00 00 00 00 00 1c 00 00 00     ................
    2f74:	3f f0 00 00 00 00 00 00 00 00 00 00 38 00 00 00     ?...........8...
    2f84:	3f f0 00 00 00 00 00 00 00 00 00 00 70 00 00 00     ?...........p...
    2f94:	3f f1 80 00 00 00 00 00 00 00 00 00 e0 01 f0 0f     ?...............
    2fa4:	ff f7 80 00 00 00 00 00 00 00 00 01 c0 03 f8 1f     ................
    2fb4:	ff ff 00 00 00 00 00 00 00 00 00 03 80 01 1c 38     ...............8
    2fc4:	3f f8 00 00 00 00 00 00 00 00 00 07 00 00 0e 70     ?..............p
    2fd4:	0b f0 03 c0 00 00 00 00 00 00 00 0e 00 00 07 e0     ................
    2fe4:	01 f0 07 f0 00 00 00 00 00 00 00 1c 00 00 03 c0     ................
    2ff4:	01 f0 0e 7e 78 00 00 00 00 00 00 38 00 00 00 00     ...~x......8....
    3004:	01 f0 0e 7f 7f 00 00 00 00 00 00 70 00 00 00 00     ...........p....
    3014:	01 f0 0f f0 3f c0 00 00 00 00 03 e0 00 00 00 00     ....?...........
    3024:	01 f0 07 c0 0f f0 00 00 00 00 0f e1 00 00 00 00     ................
    3034:	61 f1 00 00 07 fc 00 00 00 00 3e f3 c0 00 00 00     a.........>.....
    3044:	61 f1 80 00 03 9e 00 00 00 06 78 f7 c0 00 00 00     a.........x.....
    3054:	e1 f1 80 00 01 87 00 00 00 0f e3 ff c0 00 00 01     ................
    3064:	e3 f1 80 00 00 c3 00 00 00 1f c3 fe fe 00 00 07     ................
    3074:	c3 f1 80 00 00 c3 80 00 00 3f e3 9c ff 80 00 07     .........?......
    3084:	03 f1 80 01 ff c1 80 00 00 3f e7 8c f3 c0 00 07     .........?......
    3094:	03 f1 80 03 ff c1 80 00 00 7f 77 8c 60 c0 00 07     ..........w.`...
    30a4:	07 f1 80 01 f3 c0 c0 00 00 7f 77 cf 90 e0 70 07     ..........w...p.
    30b4:	07 f1 80 00 38 80 c0 00 00 76 77 cf f0 e1 fc 0e     ....8....vw.....
    30c4:	0f f1 80 e0 18 00 c0 00 00 38 e1 ce f0 c3 dc 0e     .........8......
    30d4:	0f f1 83 f0 18 00 c0 00 00 3f c0 0e 01 c3 0c 0e     .........?......
    30e4:	1f f0 03 b8 1c 00 ff e3 00 1f 80 1e 07 87 0c 0c     ................
    30f4:	1f e0 07 1c 18 00 ff ff 0f f8 00 1f 1e 06 3c 0c     ..............<.
    3104:	3f e0 06 0e 18 00 70 3f 0f f8 00 7f 38 0f f8 0c     ?.....p?....8...
    3114:	7f c0 0c 07 f8 00 00 00 1c 37 c0 f3 38 0f e0 1c     .........7..8...
    3124:	7f 80 0c 03 f0 00 00 00 0c 37 f3 f3 18 07 80 18     .........7......
    3134:	7f 80 08 00 00 00 00 00 0c 63 f7 b7 18 00 00 38     .........c.....8
    3144:	ff 00 00 00 00 00 00 00 0c 63 e7 07 18 00 00 30     .........c.....0
    3154:	ff 00 00 00 00 00 00 00 0e 67 e3 9e 18 0f e0 00     .........g......
    3164:	ff 00 00 00 00 00 00 00 0c 63 c3 fc 18 7f f8 01     .........c......
    3174:	fe 00 00 00 00 00 00 00 1c 63 81 f8 39 fe 38 01     .........c..9.8.
    3184:	fe 00 00 00 00 00 00 00 1c 7e 03 c0 3f fe 1c 01     .........~..?...
    3194:	fe 00 00 00 00 00 00 00 3c ff 0f e0 3f 07 fc 03     ........<...?...
    31a4:	fc 00 00 00 00 00 00 00 3f e3 fc f0 3c 03 f8 03     ........?...<...
    31b4:	fc 00 00 00 00 00 00 00 1f 80 f8 38 78 00 60 07     ...........8x.`.
    31c4:	f8 00 00 00 00 00 00 00 00 00 70 3f e0 00 00 0f     ..........p?....
    31d4:	f8 00 00 00 00 00 00 00 00 00 00 0f 80 00 00 0f     ................
    31e4:	f0 00 00 00 00 00 00 00 00 00 00 00 00 00 00 1f     ................
    31f4:	f0 00 00 00 00 00 00 00 00 00 00 00 00 00 00 3f     ...............?
    3204:	e0 00 00 00 00 00 00 00 00 00 00 00 00 00 00 7f     ................
    3214:	e0 00 00 00 00 00 00 00 00 00 00 00 00 00 00 7f     ................
    3224:	e0 00 00 00 00 00 00 00 00 00 00 00 00 00 00 7f     ................
    3234:	c0 00 00 00 00 00 00 00                             ........

0000323c <Lsea_map2>:
	...
    325c:	00 00 00 07 f8 00 00 00 00 00 00 00 00 00 00 00     ................
    326c:	00 00 00 1f fe 00 00 00 00 00 00 f0 00 00 00 00     ................
    327c:	00 00 00 1e 0f 00 00 00 3f ff ff ff f8 00 00 00     ........?.......
    328c:	00 00 00 3e 03 80 00 00 3f ff ff 9f f8 00 00 00     ...>....?.......
    329c:	00 00 00 fe 01 c0 00 00 00 00 00 00 00 00 00 00     ................
    32ac:	00 00 01 f0 30 c0 00 00 00 38 00 00 00 00 00 00     ....0....8......
    32bc:	00 00 01 80 3c c0 00 00 00 7c 00 0f c0 00 00 00     ....<....|......
    32cc:	00 01 f3 8e 08 e0 00 00 00 00 00 0f e0 00 00 00     ................
    32dc:	00 07 ff 0e 00 e0 00 00 00 00 00 00 00 00 00 00     ................
    32ec:	00 0f 7f 80 00 e0 00 00 00 00 00 00 00 00 00 00     ................
    32fc:	00 1c 61 80 00 e7 00 1f 00 00 03 00 00 00 00 00     ..a.............
    330c:	00 19 fd fe 00 ff c0 3f 80 00 07 c0 00 00 00 00     .......?........
    331c:	00 3b ce ff 00 7f e0 31 80 00 1f 80 00 00 00 00     .;.....1........
    332c:	00 3b 06 e3 80 00 78 31 80 00 7f 80 00 00 00 00     .;....x1........
    333c:	00 3f 07 c3 ff ff fc 67 80 00 ff 80 00 00 00 00     .?.....g........
    334c:	00 ff 06 c3 ff ff fc 7f 00 01 ff 80 00 00 00 00     ................
    335c:	01 e7 06 c3 3f ef fe fc 00 03 f9 80 00 00 00 00     ....?...........
    336c:	01 c3 0e c3 3f e7 fe f0 00 07 f9 80 00 00 00 00     ....?...........
    337c:	03 83 06 c3 3f c7 fc 60 00 1f f1 80 00 00 7f c0     ....?..`........
    338c:	03 83 06 c3 3f c7 f8 00 00 3f e1 80 1f 81 ff e0     ....?....?......
    339c:	03 03 0e c3 7f c3 f8 00 00 7f c1 80 ff ff c0 7c     ...............|
    33ac:	03 03 8f e3 7f c3 f8 3e 00 ff 81 81 f0 ff 00 3c     .......>.......<
    33bc:	03 81 8f e7 7f c3 f8 ff 01 ff 01 81 80 08 00 00     ................
    33cc:	01 81 df 7e 7f c3 f9 e3 03 ff 01 c0 00 00 00 00     ...~............
    33dc:	01 c1 ff 3c 7f c3 f3 83 07 fe 00 c0 00 00 00 00     ...<............
    33ec:	00 e1 ff 00 7f c3 f3 07 0f fc 00 c0 00 00 00 00     ................
    33fc:	00 f1 ff 00 3f c1 e3 fe 1f f8 00 c0 00 00 00 00     ....?...........
    340c:	00 3f ff 00 3f 87 c3 fc 3f f0 00 c0 00 00 00 00     .?..?...?.......
    341c:	00 1f ff 00 3f ff 81 80 7f e0 00 c0 00 00 00 00     ....?...........
    342c:	00 3f ff ff ff ff f8 00 ff c0 00 c0 00 00 00 00     .?..............
    343c:	00 7f ff ff ff e7 ff 00 ff 80 00 c0 00 00 00 00     ................
    344c:	00 7f ff ff ff e7 1f 01 ff 00 00 fe 00 00 00 00     ................
    345c:	00 00 e0 3c 00 00 00 03 fe 00 00 ff 80 00 00 00     ...<............
    346c:	00 00 00 00 00 00 00 07 fe 00 00 71 80 00 00 00     ...........q....
    347c:	00 00 00 00 00 00 00 07 fc 00 00 f5 f0 1e 00 00     ................
    348c:	00 00 00 00 00 00 00 0f f8 00 00 f5 f8 ff 00 00     ................
    349c:	00 00 00 00 00 00 00 1f f0 00 03 f1 ff e3 00 00     ................
    34ac:	00 00 00 00 00 00 00 1f f0 00 03 ff ff c3 00 00     ................
    34bc:	00 00 00 00 00 00 00 3f e0 00 07 ff b7 c3 80 00     .......?........
    34cc:	00 00 00 00 00 00 00 3f c0 00 07 ff b7 e3 c0 00     .......?........
    34dc:	00 00 00 00 00 00 00 7f c0 00 07 c7 a7 70 e0 00     .............p..
    34ec:	00 00 00 00 00 00 00 7f 80 00 0f 83 fe 38 e0 00     .............8..
    34fc:	00 00 00 00 00 00 00 ff 00 00 0f 80 f8 1c c0 00     ................
    350c:	00 00 00 00 00 00 00 ff bf 80 0f e0 00 0f c0 00     ................
    351c:	00 00 00 00 00 00 01 ff ff c0 0e e0 00 07 c0 00     ................
    352c:	00 70 00 00 00 00 01 ff e0 00 06 00 0c 07 c0 00     .p..............
    353c:	00 fe 7c 1f e0 00 01 fe 00 00 07 00 3c 03 c0 00     ..|.........<...
    354c:	00 cf ff ff f8 00 01 fe 00 00 03 87 f8 03 c0 00     ................
    355c:	00 03 c7 f0 30 00 03 fc 00 00 01 c7 e6 03 c0 3f     ....0..........?
    356c:	00 00 00 00 00 00 03 fc 00 00 01 c1 c7 03 ff ff     ................
    357c:	00 00 00 00 00 00 03 fc 00 00 00 c1 ff 03 ff e0     ................
    358c:	00 00 00 00 00 00 07 fc 00 00 00 e0 fe 03 f0 00     ................
    359c:	00 00 00 00 00 00 07 fc 00 00 0f f1 ff ff f0 00     ................
    35ac:	00 00 00 00 3e 0e 07 fd 80 00 0f ff ff ff 30 00     ....>.........0.
    35bc:	00 00 00 00 3f ff e7 ff c0 00 00 1f f0 70 00 00     ....?........p..
    35cc:	00 00 00 00 43 ff e7 f8 00 00 00 00 00 00 00 00     ....C...........
    35dc:	00 00 00 00 c0 c0 07 f8 00 00 00 00 00 00 00 00     ................
    35ec:	00 00 00 00 00 00 07 f8 00 00 00 00 00 00 00 00     ................
    35fc:	00 00 00 00 00 00 07 f8 00 00 00 00 00 00 00 00     ................
    360c:	00 00 00 00 00 00 07 f8 00 00 00 00 00 00 00 00     ................
    361c:	00 00 00 00 00 00 07 f8 00 00 00 00 00 00 00 00     ................
    362c:	00 00 00 00 00 00 07 f8 00 00 00 00 00 00 00 00     ................

0000363c <Lsea_map1>:
	...
    365c:	00 70 00 00 00 00 00 00 00 00 00 00 00 00 00 00     .p..............
    366c:	00 f8 00 00 00 00 00 00 00 00 00 00 00 00 00 00     ................
    367c:	01 f8 00 00 00 00 00 00 00 00 00 00 00 00 e0 00     ................
    368c:	03 b8 00 00 00 00 00 00 00 00 00 00 f0 01 f0 00     ................
    369c:	07 30 00 00 00 00 30 00 00 00 00 01 fc 01 f8 00     .0....0.........
    36ac:	06 30 00 00 00 00 ff e0 00 00 00 03 dc 01 9c 00     .0..............
    36bc:	06 30 00 00 00 03 ff f8 00 00 00 07 0e 03 8e 00     .0..............
    36cc:	06 30 0e 00 00 0f ff ff 00 00 00 0e 07 07 87 00     .0..............
    36dc:	0e 38 3f 80 00 1f ff ff c0 00 00 06 03 fe 03 80     .8?.............
    36ec:	0c 1f fb 80 20 3f ff ff f0 00 00 00 01 fc 01 80     .... ?..........
    36fc:	0c 0f e1 c1 e0 7f fb ff f8 00 00 00 00 60 01 c0     .............`..
    370c:	00 00 00 ff c0 ff e0 0f fc 00 00 00 00 00 00 00     ................
    371c:	00 00 00 ff 01 ff c0 01 fe 00 00 00 00 00 00 00     ................
    372c:	00 00 00 00 01 bf c0 00 3f 00 00 00 00 00 00 00     ........?.......
    373c:	00 00 00 00 03 3e e0 00 0f c0 00 00 00 00 00 00     .....>..........
    374c:	00 00 00 1f 83 0c fc 00 07 e0 00 00 00 00 00 00     ................
    375c:	00 00 00 7f c7 6c f8 00 01 fc 00 00 00 40 00 00     .....l.......@..
    376c:	00 00 00 f0 e6 fc f8 00 00 3f 00 00 03 f8 00 00     .........?......
    377c:	00 00 01 c0 76 f9 f0 00 00 07 c0 00 07 fc 00 00     ....v...........
    378c:	00 00 03 83 3f ff e0 00 00 01 f0 00 07 0c 00 00     ....?...........
    379c:	00 00 03 03 1f ff e0 00 00 00 7c 00 03 8e 00 00     ..........|.....
    37ac:	00 00 00 07 0f f9 c0 00 00 00 1f 00 01 e6 00 00     ................
    37bc:	00 00 00 03 8f f8 c0 00 00 00 07 c0 00 f6 00 00     ................
    37cc:	00 00 00 01 cf f8 00 00 00 00 01 f0 00 38 00 00     .............8..
    37dc:	00 00 00 00 cf f8 03 e0 00 00 00 7c 00 18 00 00     ...........|....
    37ec:	00 00 00 00 cf f8 03 f8 00 00 00 1f 00 08 00 00     ................
    37fc:	00 00 00 00 cf f8 03 fc 00 00 00 07 c0 00 00 00     ................
    380c:	00 00 00 00 c7 f8 03 fe 00 00 00 01 f0 00 70 00     ..............p.
    381c:	00 00 00 00 c7 f8 00 fe 00 00 00 00 7c 00 78 00     ............|.x.
    382c:	00 00 00 00 c7 f8 00 04 00 00 00 00 1f 00 3e 00     ..............>.
    383c:	00 00 00 00 c7 f8 00 00 07 c0 00 00 07 c0 1f 00     ................
    384c:	00 00 00 00 c7 f8 00 00 0f e0 03 ff ff f0 0f 00     ................
    385c:	00 00 00 00 c7 fc 3f c0 0c 70 0f ff ff f8 07 80     ......?..p......
    386c:	00 00 00 00 c3 fc 7f c0 8c 38 1e 00 3f fe 03 80     .........8..?...
    387c:	00 00 00 00 e3 fc 78 fc ce 1c 78 00 3f ff 83 c8     ......x...x.?...
    388c:	00 00 00 30 01 fe 3f ff c7 8e f0 03 33 ff c3 fc     ...0..?.....3...
    389c:	00 00 00 7c 01 fe 1f e0 c1 c7 c0 07 33 3f f3 fc     ...|........3?..
    38ac:	00 00 00 3e 00 ff 00 00 c0 e3 80 fe 38 3f ff 7e     ...>........8?.~
    38bc:	00 00 00 1f 80 ff 00 00 c1 c0 00 fe 1c 3b ff 3e     .............;.>
    38cc:	00 00 00 0f c0 7f 00 04 e7 80 01 ce 1f f3 ff 3f     ...............?
    38dc:	00 00 00 0f e0 7f 80 0f ff 00 01 ce 07 ff fe 3b     ...............;
    38ec:	00 00 00 06 70 7d 80 0f ff 00 00 fe 03 ff fc 3b     ....p}.........;
    38fc:	00 00 00 06 38 7f c0 07 ff 80 00 7e 00 ff f8 31     ....8......~...1
    390c:	00 0f 80 3e 18 3f c0 03 81 e1 f0 00 08 3f f8 01     ...>.?.......?..
    391c:	00 3f c0 3e 1c 3f e0 01 c0 f7 fc 00 3c 39 f0 03     .?.>.?......<9..
    392c:	00 78 e0 3e 0e 1f e0 00 e0 0f 1f 00 fe 71 e0 03     .x.>.........q..
    393c:	00 60 60 3e 06 1f f0 00 78 1c 07 81 e7 e1 c0 03     .``>....x.......
    394c:	00 e0 70 3e 06 0f f8 00 3f fc 01 ff 83 c0 00 00     ..p>....?.......
    395c:	01 c0 3c 70 06 0f f8 00 0f f8 00 ff 00 00 00 00     ..<p............
    396c:	01 80 1f e0 06 07 fc 00 00 00 00 00 00 00 00 00     ................
    397c:	01 00 07 c0 00 03 fc 00 00 00 00 00 00 00 00 00     ................
    398c:	00 00 00 00 00 01 fe 00 00 00 00 00 00 00 00 00     ................
    399c:	00 00 00 00 00 01 ff 00 00 00 00 00 00 00 00 00     ................
    39ac:	00 00 00 00 00 00 ff 80 00 00 00 00 00 00 00 00     ................
    39bc:	00 00 00 00 00 00 ff c0 0f 00 00 00 00 00 00 00     ................
    39cc:	00 00 00 00 00 00 7f e0 1f c0 00 00 00 00 00 00     ................
    39dc:	00 00 00 00 00 00 3f f0 39 f0 00 00 00 00 00 00     ......?.9.......
    39ec:	00 00 00 00 00 00 3f f8 70 e0 00 00 00 00 00 00     ......?.p.......
    39fc:	00 00 00 00 00 00 1f fc 00 00 00 00 00 00 00 00     ................
    3a0c:	00 00 00 00 00 00 1f fe 00 00 00 00 00 00 00 00     ................
    3a1c:	00 00 00 00 00 00 0e fe 00 00 00 00 00 00 00 00     ................
    3a2c:	00 00 00 00 00 00 06 7f 00 00 00 00 00 00 00 00     ................

00003a3c <field_map1>:
    3a3c:	66 7e 7e 7e 7f 7f 7f 7f 7f 11 11 11 11 53 bb b9     f~~~.........S..
    3a4c:	3c 3c 3c 3c 3c 36 3e 3e 3e 11 11 11 11 7f ff 9f     <<<<<6>>>.......
    3a5c:	1c 00 00 00 00 00 00 00 00 00 00 00 00 00 00 0e     ................
    3a6c:	62 00 00 00 00 00 00 00 00 08 00 04 44 00 00 11     b...........D...
    3a7c:	41 00 00 00 00 00 00 00 00 11 11 11 11 80 00 20     A.............. 
    3a8c:	43 00 00 00 00 00 00 00 00 11 11 11 11 00 00 31     C..............1
    3a9c:	45 00 00 00 00 06 06 06 07 00 00 00 00 00 00 28     E..............(
    3aac:	41 00 00 00 00 07 07 07 87 88 00 00 44 00 00 20     A...........D.. 
    3abc:	66 00 00 00 00 07 07 07 07 91 11 11 11 80 00 39     f..............9
    3acc:	7e 00 00 00 00 07 07 07 07 91 11 11 11 00 00 1f     ~...............
    3adc:	1c 00 00 00 00 60 60 20 20 00 00 00 00 00 00 0e     .....``  .......
    3aec:	22 00 00 00 00 70 70 70 78 00 00 00 04 00 00 11     "....pppx.......
    3afc:	41 00 00 00 00 70 70 70 78 11 11 11 11 80 00 20     A....pppx...... 
    3b0c:	43 00 00 00 00 70 70 70 70 11 11 11 11 00 00 30     C....pppp......0
    3b1c:	45 00 00 00 00 00 00 00 00 00 00 00 00 00 00 29     E..............)
    3b2c:	41 00 00 00 00 00 00 00 00 00 00 00 00 00 00 20     A.............. 
    3b3c:	67 00 00 00 00 00 00 00 00 11 11 11 11 80 00 39     g..............9
    3b4c:	7e 00 00 00 00 00 00 00 00 11 11 11 11 00 00 1f     ~...............
    3b5c:	18 00 00 00 00 00 00 00 00 00 00 00 00 00 00 0e     ................
    3b6c:	22 00 00 00 00 00 00 00 00 00 00 00 00 00 00 11     "...............
    3b7c:	41 00 00 00 00 00 00 00 00 00 00 00 00 00 00 20     A.............. 
    3b8c:	43 00 00 00 00 00 00 00 00 00 00 00 00 00 00 30     C..............0
    3b9c:	45 00 00 00 00 00 00 00 00 00 00 00 00 00 00 29     E..............)
    3bac:	41 00 00 00 00 00 00 00 00 00 00 00 00 00 00 20     A.............. 
    3bbc:	47 00 00 00 00 00 00 00 00 00 00 00 00 00 00 38     G..............8
    3bcc:	76 00 00 00 00 00 00 00 00 00 00 00 00 00 00 1b     v...............
    3bdc:	18 00 00 00 00 00 7d 00 00 00 00 00 00 00 00 0e     ......}.........
    3bec:	26 00 00 00 00 00 7f 80 00 00 00 00 00 00 00 19     &...............
    3bfc:	41 00 00 00 00 00 7f 80 00 00 00 00 00 00 00 20     A.............. 
    3c0c:	41 00 00 00 00 00 80 80 00 00 00 00 00 00 00 20     A.............. 
    3c1c:	45 00 00 00 00 00 80 80 80 00 00 00 00 00 44 29     E.............D)
    3c2c:	41 c6 66 00 00 00 80 e3 33 63 33 63 33 61 19 a0     A.f.....3c3c3a..
    3c3c:	47 a6 67 00 00 00 7f b3 33 53 33 53 33 53 99 b8     G.g.....3S3S3S..
    3c4c:	76 ff ff 00 00 00 02 ff ff ff fb f7 ff ff ff 9b     v...............
    3c5c:	18 bc cc 00 00 00 01 9c cc be ee 8e ee 8e 66 0e     ..............f.
    3c6c:	64 00 00 00 00 08 00 00 00 00 00 00 00 00 00 13     d...............
    3c7c:	46 00 00 33 11 99 11 00 00 00 00 11 11 99 98 a1     F..3............
    3c8c:	c6 00 00 22 22 33 31 00 00 00 00 11 11 11 11 23     ...""31........#
    3c9c:	4e 00 00 00 00 00 00 00 00 00 00 00 00 00 00 37     N..............7
    3cac:	ff 00 00 00 00 00 00 00 00 00 00 00 00 00 00 7f     ................
    3cbc:	fe 00 00 31 99 99 99 00 00 00 00 11 11 99 8c bf     ...1............
    3ccc:	7e 00 00 22 22 33 31 00 00 00 00 11 11 11 11 3b     ~..""31........;
    3cdc:	38 00 00 00 00 00 00 00 00 00 00 00 00 00 00 0e     8...............
    3cec:	64 00 00 00 00 00 00 00 00 00 00 00 00 00 00 12     d...............
    3cfc:	46 00 00 19 99 99 99 00 00 00 00 11 11 14 cc a1     F...............
    3d0c:	c6 00 00 22 23 33 31 00 00 00 00 11 11 11 11 23     ..."#31........#
    3d1c:	4e 00 00 02 22 22 22 00 00 00 00 00 00 00 11 37     N..."""........7
    3d2c:	ff 00 00 00 00 00 00 00 00 00 00 00 00 00 00 7f     ................
    3d3c:	fe 00 00 08 88 89 99 00 00 00 00 11 55 44 44 7f     ............UDD.
    3d4c:	7e 00 00 22 23 33 31 00 00 00 00 11 11 11 11 3f     ~.."#31........?
    3d5c:	38 00 00 22 22 22 22 00 00 00 00 01 11 11 11 0e     8.."""".........
    3d6c:	6c 00 00 00 00 00 00 00 00 00 00 00 00 00 00 12     l...............
    3d7c:	46 2a 88 88 89 00 00 00 00 19 91 55 54 80 00 11     F*.........UT...
    3d8c:	c6 22 22 22 33 00 00 00 00 11 11 11 11 00 00 23     ."""3..........#
    3d9c:	4e 22 22 22 22 00 00 00 00 22 31 11 11 00 00 37     N""""...."1....7
    3dac:	df 00 00 00 00 07 07 00 00 00 00 00 00 07 87 f7     ................
    3dbc:	fe a8 88 88 88 07 07 00 00 19 9d 55 44 83 83 ff     ...........UD...
    3dcc:	7e 22 22 22 33 07 07 00 00 11 11 11 11 03 83 bf     ~"""3...........
    3ddc:	3c 62 22 22 22 07 07 00 00 23 33 33 11 03 83 8e     <b"""....#33....
    3dec:	2c 00 00 00 00 f0 70 00 00 00 08 00 00 78 78 12     ,.....p......xx.
    3dfc:	46 a8 88 88 88 f0 70 00 00 5d dd d5 44 78 38 11     F.....p..]..Dx8.
    3e0c:	c6 22 22 23 33 70 70 00 00 11 11 11 11 38 38 23     .""#3pp......88#
    3e1c:	4e 66 66 22 22 70 70 00 00 33 33 33 33 38 38 37     Nff""pp..3333887
    3e2c:	df 00 00 00 00 00 00 00 00 00 08 00 00 00 00 77     ...............w

00003e3c <intro_7>:
	...
    3e70:	00 00 00 0e 00 00 00 00 00 00 00 00 00 00 00 00     ................
    3e80:	00 00 00 3e 00 00 00 00 00 00 00 00 00 00 00 00     ...>............
    3e90:	00 00 00 3e 00 00 00 00 03 e0 00 00 00 00 00 00     ...>............
    3ea0:	00 00 00 1e 00 00 00 00 02 20 00 00 00 00 00 00     ......... ......
    3eb0:	00 00 00 0f 00 60 07 ff 84 60 00 00 00 00 00 00     .....`...`......
    3ec0:	00 00 00 07 80 d0 08 00 6c 7c 00 00 00 00 00 00     ........l|......
    3ed0:	00 00 00 03 85 cc e0 00 18 f4 00 00 00 00 00 00     ................
    3ee0:	00 00 00 03 82 67 c0 00 11 e2 00 00 00 00 00 00     .....g..........
    3ef0:	00 00 00 01 c2 12 00 00 13 c3 00 00 00 00 00 00     ................
    3f00:	00 00 01 f9 02 16 00 00 0f 81 80 00 00 00 00 00     ................
    3f10:	00 00 03 f8 03 0c 00 00 0c 3e e0 00 00 00 00 00     .........>......
    3f20:	00 00 01 f0 03 0e 00 00 03 e3 e0 00 00 00 00 00     ................
    3f30:	00 00 00 00 06 74 00 00 00 03 c0 00 00 00 00 00     .....t..........
    3f40:	00 00 00 00 0e 08 1f 1f 00 03 00 00 00 00 00 00     ................
    3f50:	00 00 00 00 0c 08 11 01 00 06 00 00 00 00 00 00     ................
    3f60:	00 00 00 00 07 08 00 00 00 0c 00 00 00 00 00 00     ................
    3f70:	00 00 00 00 00 b8 1c 0e 00 08 00 00 00 00 00 00     ................
    3f80:	00 00 00 00 00 f8 3e 3f 00 08 00 00 00 00 00 00     ......>?........
    3f90:	00 00 00 00 00 08 27 37 80 0c 00 00 00 0e 00 00     ......'7........
    3fa0:	00 00 00 00 00 08 67 37 80 0c 00 00 00 39 80 00     ......g7.....9..
    3fb0:	00 00 00 00 00 08 6f 3f 80 0c 00 00 00 e0 c1 f8     ......o?........
    3fc0:	03 f8 00 00 00 08 7f 1f 80 0c 00 00 03 00 6f 09     ..............o.
    3fd0:	ce 0c 00 00 00 38 3f 1f 80 08 00 00 08 00 38 0f     .....8?.......8.
    3fe0:	58 02 00 00 00 60 1c 0e 04 08 00 00 08 00 00 0c     X....`..........
    3ff0:	70 02 00 00 00 c5 80 00 36 08 00 00 78 00 00 18     p.......6...x...
    4000:	60 02 00 00 00 84 80 e0 12 10 00 00 40 00 00 00     `...........@...
    4010:	00 02 00 00 00 8c 9d b1 90 3c 00 00 40 00 00 00     .........<..@...
    4020:	00 06 00 00 1f c0 07 0f 00 7f c0 00 40 00 00 00     ............@...
    4030:	00 04 00 00 39 e0 03 0c 00 f1 70 00 40 00 00 00     ....9.....p.@...
    4040:	03 fc 00 00 2e 78 01 f8 03 60 e0 00 40 00 00 00     .....x...`..@...
    4050:	02 00 00 00 78 3c 00 00 0d c1 80 00 40 00 00 00     ....x<......@...
    4060:	02 00 00 00 70 0e 00 00 3b 03 00 00 70 20 00 00     ....p...;...p ..
    4070:	06 00 00 00 7f 83 fc 0f f2 0e 00 00 1f f0 00 e0     ................
    4080:	04 00 00 00 00 c0 ff fe 0c 1c 00 00 00 10 00 b0     ................
    4090:	08 00 00 00 00 c0 00 00 06 f0 00 00 00 10 03 1f     ................
    40a0:	f8 00 00 00 00 ff 80 f0 04 00 00 00 00 10 02 00     ................
    40b0:	00 00 00 00 00 00 8f 18 04 00 00 00 00 18 06 00     ................
    40c0:	00 00 00 00 00 00 86 08 04 02 00 00 00 0f fc 00     ................
    40d0:	00 00 00 00 00 00 83 38 c6 06 00 00 00 00 00 00     .......8........
    40e0:	00 00 00 00 00 00 82 a8 82 16 00 00 00 00 00 00     ................
    40f0:	00 00 00 00 00 00 4f 0f 86 c2 00 00 00 00 00 00     ......O.........
    4100:	00 00 00 00 00 00 7f 9c 03 02 00 00 00 00 00 00     ................
    4110:	00 00 00 00 00 00 9e 18 00 02 00 00 00 00 00 00     ................
    4120:	00 00 00 00 00 00 9f 38 00 02 00 00 00 00 00 00     .......8........
    4130:	00 00 00 00 00 00 91 e8 00 06 00 00 00 00 00 00     ................
    4140:	00 00 00 00 00 00 90 08 00 04 00 00 00 00 00 00     ................
    4150:	00 00 00 00 00 00 90 08 00 08 00 00 00 00 00 00     ................
    4160:	00 00 00 00 00 00 98 0c 00 18 00 00 00 00 00 00     ................
    4170:	00 00 00 00 00 00 5f 48 00 30 00 00 00 00 00 00     ......_H.0......
    4180:	00 00 00 00 00 00 49 f8 01 c0 00 00 00 00 00 00     ......I.........
    4190:	00 00 00 2f 1c 00 68 08 03 00 00 00 00 00 00 00     .../..h.........
    41a0:	00 00 00 37 f9 c0 18 08 04 00 00 00 00 00 00 00     ...7............
    41b0:	00 00 1f e0 00 e0 1f 08 08 00 00 00 00 00 00 00     ................
    41c0:	00 00 20 00 00 3f 0e f8 08 00 00 00 00 00 00 00     .. ..?..........
    41d0:	00 1f e0 00 00 01 fc 08 7f f0 00 00 00 00 00 00     ................
    41e0:	00 30 00 00 00 01 ff ff ff f0 00 00 00 00 00 00     .0..............
    41f0:	00 20 00 00 00 01 c0 00 01 f0 00 00 00 00 00 00     . ..............
    4200:	00 20 00 00 00 01 c0 00 01 f0 00 00                 . ..........

0000420c <intro_6>:
	...
    42ec:	00 0c 7f 80 0c 7f 80 00 03 3c 00 00 3c 00 00 00     .........<..<...
    42fc:	0c 6c 01 87 cc 01 80 7f 83 3c 7f c3 3c 3f 80 00     .l.......<..<?..
    430c:	0c 6c 7f 8c cc 7f 80 01 9f fc 0c 03 3c 61 80 00     .l..........<a..
    431c:	0c 6c 60 0c 6c 60 00 01 80 3c 1e 03 3c 60 c0 00     .l`.l`...<..<`..
    432c:	0f ec 7f cc 6c 7f c0 01 8f bc 73 83 fc 61 80 00     ....l.....s..a..
    433c:	0c 6c 33 0c 6c 00 00 01 8c fd c0 c7 3c 71 80 00     .l3.l.......<q..
    434c:	0c 6d ff ec 6d ff e1 ff ec fc 00 0f bc 3f 00 00     .m..m........?..
    435c:	0c 6c 00 0c cc 7f 80 0c 0d fd ff ec fc 33 00 00     .l...........3..
    436c:	0f ec 3f 87 8c 01 80 0c 07 3c 0c 18 fc 33 00 00     ..?......<...3..
    437c:	00 0c 61 80 0c 7f 80 0c 00 3c 0c 00 3d ff e0 00     ..a......<..=...
    438c:	00 0c 61 80 0c 60 00 0c 00 3c 0c 00 3c 00 00 00     ..a..`...<..<...
    439c:	00 0c 3f 00 0c 7f c0 0c 00 0c 0c 00 0c 00 00 00     ..?.............
	...

0000460c <intro_5>:
	...
    468c:	0c 30 03 03 00 0f 00 03 00 30 00 00 00 00 00 00     .0.......0......
    469c:	3f 33 f3 3f f3 ef 03 ef 3f b0 00 00 00 00 00 00     ?3.?....?.......
    46ac:	33 30 3f 00 03 6f 03 ef 0c 30 00 00 00 00 00 00     30?..o...0......
    46bc:	31 b0 33 0f c6 3f 03 ef 0e 30 00 00 00 00 00 00     1.3..?...0......
    46cc:	33 30 6f 18 66 3f 03 ff 8e 30 00 00 00 00 00 00     30o.f?...0......
    46dc:	3f 31 c3 18 66 3f 03 ef 1b b0 00 00 00 00 00 00     ?1..f?..........
    46ec:	0c 33 03 0c e6 6f 03 ef 71 b0 00 00 00 00 00 00     .3...o..q.......
    46fc:	00 30 7c 07 83 6f 03 ef 00 30 00 00 00 00 00 00     .0|..o...0......
    470c:	0c 00 c7 03 01 cf 03 ff 0c 00 00 00 00 00 00 00     ................
    471c:	0c 00 c3 7f f8 0f 00 03 0c 00 00 00 00 00 00 00     ................
    472c:	0c 00 c3 00 00 0f 00 03 0c 00 00 00 00 00 00 00     ................
    473c:	0f f0 7e 00 00 03 00 03 0f f0 00 00 00 00 00 00     ..~.............
	...
    47ac:	00 00 00 03 00 18 00 18 ff 00 18 00 00 00 00 00     ................
    47bc:	1f 1f f9 fb 0f 98 18 d8 03 0f 98 00 00 00 00 00     ................
    47cc:	31 81 80 1b 18 d8 18 d8 ff 19 98 00 00 00 00 00     1...............
    47dc:	31 81 80 19 d8 d8 18 d8 c0 18 d8 00 00 00 00 00     1...............
    47ec:	31 83 c0 33 18 d8 1f d8 ff 98 d8 00 00 00 00 00     1..3............
    47fc:	33 8e 70 e3 0f 98 18 d8 66 18 d8 00 00 00 00 00     3.p.....f.......
    480c:	1f 98 1b 83 00 18 18 db ff d8 d8 00 00 00 00 00     ................
    481c:	0d 81 80 ff 00 18 18 d8 00 19 98 00 00 00 00 00     ................
    482c:	18 81 80 03 3f f8 1f d8 7f 0f 18 00 00 00 00 00     ....?...........
    483c:	10 bf fc 03 00 18 00 18 c3 00 18 00 00 00 00 00     ................
    484c:	19 00 00 03 00 18 00 18 c3 00 18 00 00 00 00 00     ................
    485c:	0f 00 00 03 00 18 00 18 7e 00 18 00 00 00 00 00     ........~.......
	...

00004a0c <intro_4>:
	...
    4b4c:	7f e0 06 00 60 06 00 00 00 00 00 00 00 00 00 00     ....`...........
    4b5c:	6c 67 e6 7f 61 86 00 00 00 00 00 00 00 00 00 00     lg..a...........
    4b6c:	6d e6 66 18 61 86 00 00 00 00 00 00 00 00 00 00     m.f.a...........
    4b7c:	6c 66 66 1b e1 86 00 00 00 00 00 00 00 00 00 00     lff.............
    4b8c:	7f e6 3e 18 61 be 00 00 00 00 00 00 00 00 00 00     ..>.a...........
    4b9c:	00 66 66 1f e1 c6 00 00 00 00 00 00 00 00 00 00     .ff.............
    4bac:	00 06 66 3e 63 e6 00 00 00 00 00 00 00 00 00 00     ..f>c...........
    4bbc:	1f e6 66 67 66 76 00 00 00 00 00 00 00 00 00 00     ..fgfv..........
    4bcc:	00 63 c6 c3 6c 36 00 00 00 00 00 00 00 00 00 00     .c..l6..........
    4bdc:	1f e0 06 00 60 06 00 00 00 00 00 00 00 00 00 00     ....`...........
    4bec:	18 00 06 00 60 06 00 00 00 00 00 00 00 00 00 00     ....`...........
    4bfc:	1f e0 06 00 60 06 00 00 00 00 00 00 00 00 00 00     ....`...........
	...
    4c6c:	00 00 00 06 00 06 03 00 03 00 60 00 00 00 00 00     ..........`.....
    4c7c:	3e 3f f3 f6 03 06 03 03 03 3f 60 00 00 00 00 00     >?.......?`.....
    4c8c:	63 03 00 36 03 06 07 83 03 30 60 00 00 00 00 00     c..6.....0`.....
    4c9c:	63 03 00 33 83 07 9c e3 03 30 60 00 00 00 00 00     c..3.....0`.....
    4cac:	63 07 80 66 03 1e 70 33 03 30 78 00 00 00 00 00     c..f..p3.0x.....
    4cbc:	67 04 e1 c6 01 f6 7f fb 03 30 60 00 00 00 00 00     g........0`.....
    4ccc:	3f 08 37 06 00 00 00 03 03 30 60 00 00 00 00 00     ?.7......0`.....
    4cdc:	1d 9b 01 fe 00 c6 18 63 0f 31 e0 00 00 00 00 00     .......c.1......
    4cec:	30 83 00 06 00 c6 18 63 fb 3f 60 00 00 00 00 00     0......c.?`.....
    4cfc:	10 bf f8 06 00 ee 1f e0 03 00 63 33 00 00 00 00     ..........c3....
    4d0c:	10 b0 00 06 01 bf 18 60 03 00 63 33 00 00 00 00     .......`..c3....
    4d1c:	13 80 00 06 03 31 9f e0 03 00 60 00 00 00 00 00     .....1....`.....
    4d2c:	1f 00 00 00 00 00 00 00 00 00 00 00 00 00 00 00     ................
	...

00004e0c <intro_3>:
	...
    4ecc:	00 18 ff 1f b0 07 80 03 0c 00 00 00 00 00 00 00     ................
    4edc:	18 d8 03 18 31 f7 80 63 0c 00 00 00 00 00 00 00     ....1..c........
    4eec:	18 d8 ff 18 1d b7 80 63 0c 00 00 00 00 00 00 00     .......c........
    4efc:	18 d8 c0 1f b3 1f 80 63 0c 00 00 00 00 00 00 00     .......c........
    4f0c:	1f d8 ff 98 33 1f 80 63 c7 f8 00 00 00 00 00 00     ....3..c........
    4f1c:	18 d8 66 1f f3 1f 80 73 00 00 00 00 00 00 00 00     ..f....s........
    4f2c:	18 db ff c0 03 37 80 fb 3f fc 00 00 00 00 00 00     .....7..?.......
    4f3c:	18 d8 00 0c 31 b7 81 9f 00 00 00 00 00 00 00 00     ....1...........
    4f4c:	1f d8 7f 0f f0 e7 83 0f 0c 00 00 00 00 00 00 00     ................
    4f5c:	00 18 c3 0c 30 07 80 03 0c 00 00 00 00 00 00 00     ....0...........
    4f6c:	00 18 c3 0c 30 07 80 03 0c 00 00 00 00 00 00 00     ....0...........
    4f7c:	00 18 7e 0f f0 01 80 03 0f f8 00 00 00 00 00 00     ..~.............
	...
    4fec:	00 18 ff 00 18 03 00 00 00 00 00 00 00 00 00 00     ................
    4ffc:	18 d8 03 0f 99 fb 00 00 00 00 00 00 00 00 00 00     ................
    500c:	18 d8 ff 19 98 1b 00 00 00 00 00 00 00 00 00 00     ................
    501c:	18 d8 c0 18 d8 1b 00 00 00 00 00 00 00 00 00 00     ................
    502c:	1f d8 ff 98 d8 1b c0 00 00 00 00 00 00 00 00 00     ................
    503c:	18 d8 66 18 d8 33 00 00 00 00 00 00 00 00 00 00     ..f..3..........
    504c:	18 db ff d8 d8 73 00 00 00 00 00 00 00 00 00 00     .....s..........
    505c:	18 d8 00 19 98 c3 00 00 00 00 00 00 00 00 00 00     ................
    506c:	1f d8 7f 0f 1b 83 00 00 00 00 00 00 00 00 00 00     ................
    507c:	00 18 c3 00 18 03 00 00 00 00 00 00 00 00 00 00     ................
    508c:	00 18 c3 00 18 03 00 00 00 00 00 00 00 00 00 00     ................
    509c:	00 18 7e 00 18 03 00 00 00 00 00 00 00 00 00 00     ..~.............
	...

0000520c <intro_2>:
    520c:	00 00 00 00 00 00 0f 00 00 00 00 00 00 00 00 00     ................
    521c:	00 00 00 00 00 00 0f 00 00 00 00 00 00 00 00 00     ................
    522c:	00 00 00 00 00 00 06 00 00 00 00 00 00 00 00 00     ................
    523c:	00 00 00 60 00 00 00 00 00 00 00 00 00 60 00 00     ...`.........`..
    524c:	00 00 00 f0 00 00 00 00 00 00 00 00 00 f0 00 00     ................
    525c:	00 00 00 f0 00 00 00 00 00 00 00 00 00 f0 00 00     ................
    526c:	00 00 00 60 00 00 00 00 00 00 00 00 00 60 00 00     ...`.........`..
	...
    52bc:	03 00 00 60 7e c0 06 00 00 00 60 00 00 00 00 00     ...`~.....`.....
    52cc:	03 00 3e 60 66 c3 e6 01 f8 7e 60 00 00 00 00 00     ..>`f....~`.....
    52dc:	03 00 66 60 66 76 66 03 0c 60 60 00 00 00 00 00     ..f`fvf..``.....
    52ec:	03 fe 63 60 66 c6 36 03 06 63 e0 00 00 00 00 00     ..c`f.6..c......
    52fc:	00 00 63 60 66 c6 36 03 0c 60 60 00 00 00 00 00     ..c`f.6..``.....
    530c:	00 00 63 60 3c c6 36 03 8c 63 60 00 00 00 00 00     ..c`<.6..c`.....
    531c:	0f ff 63 60 01 86 36 00 f8 3f e0 00 00 00 00 00     ..c`..6..?......
    532c:	00 60 66 60 37 e6 66 00 60 00 60 00 00 00 00 00     .`f`7.f.`.`.....
    533c:	03 60 3c 60 30 03 c6 00 60 18 00 00 00 00 00 00     .`<`0...`.......
    534c:	03 00 00 60 33 e0 06 0f ff 18 00 00 00 00 00 00     ...`3...........
    535c:	03 00 00 60 36 60 06 00 00 18 00 00 00 00 00 00     ...`6`..........
    536c:	03 fe 00 60 3f c0 06 00 00 1f e0 00 00 00 00 00     ...`?...........
	...
    53dc:	00 06 1f 80 60 00 00 00 00 00 00 00 00 00 00 00     ....`...........
    53ec:	07 e6 30 c0 f0 00 00 00 00 00 00 00 00 00 00 00     ..0.............
    53fc:	00 66 30 c0 f0 00 00 00 00 00 00 00 00 00 00 00     .f0.............
    540c:	00 7e 1f 80 60 00 00 03 00 00 00 00 00 00 00 00     .~..`...........
    541c:	00 66 00 00 00 00 00 07 80 00 00 00 00 00 00 00     .f..............
    542c:	00 e6 ff f0 00 00 00 07 80 00 00 00 00 00 00 00     ................
    543c:	01 fe 06 00 00 00 00 03 00 00 00 03 00 00 00 00     ................
    544c:	03 86 3f c0 00 00 00 00 00 00 00 07 80 00 00 00     ..?.............
    545c:	06 06 00 c0 00 00 00 00 00 00 00 07 80 00 00 00     ................
    546c:	00 06 3f c6 66 60 00 00 00 00 00 03 00 00 01 80     ..?.f`..........
    547c:	00 06 30 06 66 60 00 00 00 00 00 00 00 00 03 c0     ..0.f`..........
    548c:	00 06 3f e0 00 00 00 00 00 00 00 00 00 00 03 c0     ..?.............
	...
    54a8:	00 00 01 80 00 00 00 00 00 00 00 00 00 00 00 00     ................
	...
    54ec:	00 00 01 80 00 00 00 00 00 00 00 00 00 00 00 00     ................
    54fc:	00 00 03 c0 00 00 00 00 00 00 00 00 00 00 00 00     ................
    550c:	00 00 03 c0 00 00 00 00 00 00 00 00 00 00 00 00     ................
    551c:	00 00 01 80 00 00 00 00 00 00 00 00 00 00 00 00     ................
	...
    5534:	00 03 00 00 00 00 00 00 00 00 00 00 00 00 00 00     ................
    5544:	00 07 80 00 00 00 00 00 00 00 00 00 00 00 00 00     ................
    5554:	00 07 80 00 00 00 00 00 03 00 00 00 00 00 00 00     ................
    5564:	00 03 00 00 00 60 00 00 07 80 00 00 00 00 00 00     .....`..........
    5574:	00 00 00 00 00 f0 00 00 07 80 00 00 00 00 00 00     ................
    5584:	00 00 00 00 00 f0 00 00 03 00 00 00 00 00 00 00     ................
    5594:	00 00 00 00 00 60 00 00 00 00 00 00 00 00 00 c0     .....`..........
	...
    55b0:	00 00 01 e0 00 00 00 00 00 00 00 00 00 00 00 00     ................
    55c0:	00 00 01 e0 00 00 00 00 00 00 00 00 00 00 00 00     ................
    55d0:	00 00 00 c0 00 00 00 00 00 00 00 00 00 00 00 00     ................
	...

0000560c <intro_1>:
	...
    5628:	00 00 00 f0 00 00 00 00 00 00 00 00 00 00 00 00     ................
    5638:	00 00 00 f0 1e 00 00 1e 00 00 00 00 00 00 00 00     ................
    5648:	00 00 00 f0 1e 00 00 1e 00 00 00 00 00 00 03 c0     ................
    5658:	00 00 00 f0 1e 00 00 1e 00 00 00 00 00 00 03 c0     ................
    5668:	00 00 00 00 1e 00 00 1e 00 00 00 00 00 00 03 c0     ................
	...
    5684:	00 00 03 c0 00 00 00 00 00 00 00 00 00 00 00 00     ................
	...
    56bc:	03 00 00 60 7e c0 06 00 00 00 60 00 00 00 00 00     ...`~.....`.....
    56cc:	03 00 3e 60 66 c3 e6 01 f8 7e 60 00 00 00 00 00     ..>`f....~`.....
    56dc:	03 00 66 60 66 76 66 03 0c 60 60 00 00 00 00 00     ..f`fvf..``.....
    56ec:	03 fe 63 60 66 c6 36 03 06 63 e0 00 00 00 00 00     ..c`f.6..c......
    56fc:	00 00 63 60 66 c6 36 03 0c 60 60 00 00 00 00 00     ..c`f.6..``.....
    570c:	00 00 63 60 3c c6 36 03 8c 63 60 00 00 0f 00 00     ..c`<.6..c`.....
    571c:	0f ff 63 60 01 86 36 00 f8 3f e0 00 00 0f 00 00     ..c`..6..?......
    572c:	00 60 66 60 37 e6 66 00 60 00 60 00 00 0f 00 00     .`f`7.f.`.`.....
    573c:	03 60 3c 60 30 03 c6 00 60 18 00 00 00 0f 00 00     .`<`0...`.......
    574c:	03 00 00 60 33 e0 06 0f ff 18 00 00 00 20 00 00     ...`3........ ..
    575c:	03 00 00 60 36 60 06 00 00 18 00 00 00 20 00 00     ...`6`....... ..
    576c:	03 fe 00 60 3f c0 06 00 00 1f e0 00 00 20 00 00     ...`?........ ..
	...
    5788:	00 60 00 00 00 00 00 00 00 00 00 00 00 00 00 00     .`..............
    5798:	00 40 00 00 00 00 00 00 00 00 00 00 00 00 00 00     .@..............
    57a8:	00 40 00 00 00 00 00 00 07 80 00 00 00 00 00 00     .@..............
    57b8:	00 80 00 00 00 00 00 00 07 80 00 00 00 00 00 00     ................
    57c8:	00 80 00 0f 00 00 00 00 07 80 00 00 00 00 03 c0     ................
    57d8:	01 80 00 0f 00 06 1f 80 07 80 00 00 00 00 03 c0     ................
    57e8:	01 00 00 0f 07 e6 30 c0 00 00 00 00 00 00 03 c0     ......0.........
    57f8:	03 00 00 0f 00 66 30 c0 00 00 00 00 00 00 03 c0     .....f0.........
    5808:	02 00 00 00 00 7e 1f 80 00 00 00 00 00 00 00 00     .....~..........
    5818:	06 00 00 00 00 66 00 00 00 00 00 00 00 00 00 00     .....f..........
    5828:	04 00 00 00 00 e6 ff f0 00 00 00 00 00 00 00 00     ................
    5838:	0c 00 00 00 01 fe 06 00 00 00 00 1e 00 00 00 00     ................
    5848:	18 00 00 00 03 86 3f c0 00 00 00 1e 00 00 00 00     ......?.........
    5858:	10 00 00 00 06 06 00 c0 00 00 00 1e 00 00 00 00     ................
    5868:	30 00 00 00 00 06 3f c6 66 60 00 1e 00 00 00 00     0.....?.f`......
    5878:	20 00 00 00 00 06 30 06 66 60 00 00 00 00 00 00      .....0.f`......
    5888:	40 00 00 00 00 06 3f e0 00 00 00 00 01 f0 00 00     @.....?.........
    5898:	c0 00 00 00 00 00 00 00 00 00 00 00 02 10 00 01     ................
	...
    58b4:	04 18 00 02 00 00 00 00 00 00 00 00 00 00 00 00     ................
    58c4:	0c 08 00 0c 00 00 00 00 00 00 00 00 00 00 00 00     ................
    58d4:	08 08 00 18 00 00 00 00 00 00 00 00 00 78 00 00     .............x..
    58e4:	18 08 00 30 00 00 00 00 00 00 00 08 00 78 00 00     ...0.........x..
    58f4:	10 38 00 63 c0 00 00 00 00 00 00 38 00 78 00 00     .8.c.......8.x..
    5904:	10 00 01 83 c0 00 00 00 00 00 00 60 00 78 00 00     ...........`.x..
    5914:	10 00 07 03 c0 00 00 00 00 00 00 c0 00 00 00 00     ................
    5924:	10 00 1c 03 c0 00 00 00 0f 0e 00 80 00 00 00 00     ................
    5934:	10 00 70 00 00 00 00 00 0f 09 81 00 00 00 00 00     ..p.............
    5944:	18 01 c0 00 00 00 00 00 0f 18 c6 00 00 00 00 00     ................
    5954:	0f ff 00 00 00 00 00 78 0f 10 1c 00 00 00 00 00     .......x........
    5964:	00 00 00 00 00 00 00 78 00 0c 30 00 00 00 00 00     .......x..0.....
    5974:	00 00 00 00 00 00 00 78 00 04 e0 00 00 00 00 00     .......x........
    5984:	00 00 00 00 00 00 00 78 00 03 80 00 00 00 00 00     .......x........
	...
    59a4:	00 f0 00 00 00 00 00 00 00 00 00 00 00 00 00 00     ................
    59b4:	00 f0 00 00 00 00 00 00 00 00 00 00 00 00 00 00     ................
    59c4:	00 f0 00 00 00 00 00 00 00 00 00 00 00 00 00 00     ................
    59d4:	00 f0 00 00 00 00 00 00 00 00 01 e0 00 00 00 00     ................
	...
    59ec:	00 00 01 e0 00 00 00 00 00 00 00 00 00 1e 00 00     ................
    59fc:	00 00 01 e0 00 00 00 00 00 00 00 00 00 1e 00 00     ................

00005a0c <__ctors_end>:
    5a0c:	11 24       	eor	r1, r1
    5a0e:	1f be       	out	0x3f, r1	; 63
    5a10:	cf ef       	ldi	r28, 0xFF	; 255
    5a12:	d0 e1       	ldi	r29, 0x10	; 16
    5a14:	de bf       	out	0x3e, r29	; 62
    5a16:	cd bf       	out	0x3d, r28	; 61

00005a18 <__do_copy_data>:
    5a18:	13 e0       	ldi	r17, 0x03	; 3
    5a1a:	a0 e0       	ldi	r26, 0x00	; 0
    5a1c:	b1 e0       	ldi	r27, 0x01	; 1
    5a1e:	ec e4       	ldi	r30, 0x4C	; 76
    5a20:	fb e6       	ldi	r31, 0x6B	; 107
    5a22:	00 e0       	ldi	r16, 0x00	; 0
    5a24:	0b bf       	out	0x3b, r16	; 59
    5a26:	02 c0       	rjmp	.+4      	; 0x5a2c <__do_copy_data+0x14>
    5a28:	07 90       	elpm	r0, Z+
    5a2a:	0d 92       	st	X+, r0
    5a2c:	ac 3f       	cpi	r26, 0xFC	; 252
    5a2e:	b1 07       	cpc	r27, r17
    5a30:	d9 f7       	brne	.-10     	; 0x5a28 <__do_copy_data+0x10>

00005a32 <__do_clear_bss>:
    5a32:	2c e0       	ldi	r18, 0x0C	; 12
    5a34:	ac ef       	ldi	r26, 0xFC	; 252
    5a36:	b3 e0       	ldi	r27, 0x03	; 3
    5a38:	01 c0       	rjmp	.+2      	; 0x5a3c <.do_clear_bss_start>

00005a3a <.do_clear_bss_loop>:
    5a3a:	1d 92       	st	X+, r1

00005a3c <.do_clear_bss_start>:
    5a3c:	ae 32       	cpi	r26, 0x2E	; 46
    5a3e:	b2 07       	cpc	r27, r18
    5a40:	e1 f7       	brne	.-8      	; 0x5a3a <.do_clear_bss_loop>
    5a42:	45 d3       	rcall	.+1674   	; 0x60ce <main>
    5a44:	0c 94 a4 35 	jmp	0x6b48	; 0x6b48 <_exit>

00005a48 <__bad_interrupt>:
    5a48:	0c 94 00 00 	jmp	0	; 0x0 <__vectors>

00005a4c <delay_us_Melody>:
 #define     Buzzer_Pin      4
 #define     MelOn    SETBIT(Buzzer_Port, Buzzer_Pin)
 #define     MelOff   CLEARBIT(Buzzer_Port, Buzzer_Pin)

 void delay_us_Melody(int data)
 {	int i;	for(i=0;i<data;i++)	{		_delay_us(1);	}}
    5a4c:	18 16       	cp	r1, r24
    5a4e:	19 06       	cpc	r1, r25
    5a50:	5c f4       	brge	.+22     	; 0x5a68 <delay_us_Melody+0x1c>
    5a52:	20 e0       	ldi	r18, 0x00	; 0
    5a54:	30 e0       	ldi	r19, 0x00	; 0
	#else
		//round up by default
		__ticks_dc = (uint32_t)(ceil(fabs(__tmp)));
	#endif

	__builtin_avr_delay_cycles(__ticks_dc);
    5a56:	45 e0       	ldi	r20, 0x05	; 5
    5a58:	4a 95       	dec	r20
    5a5a:	f1 f7       	brne	.-4      	; 0x5a58 <delay_us_Melody+0xc>
    5a5c:	00 00       	nop
    5a5e:	2f 5f       	subi	r18, 0xFF	; 255
    5a60:	3f 4f       	sbci	r19, 0xFF	; 255
    5a62:	82 17       	cp	r24, r18
    5a64:	93 07       	cpc	r25, r19
    5a66:	b9 f7       	brne	.-18     	; 0x5a56 <delay_us_Melody+0xa>
    5a68:	08 95       	ret

00005a6a <Sound>:

 void Sound(unsigned int ch, unsigned int time)
 {
    5a6a:	ef 92       	push	r14
    5a6c:	ff 92       	push	r15
    5a6e:	0f 93       	push	r16
    5a70:	1f 93       	push	r17
    5a72:	cf 93       	push	r28
    5a74:	df 93       	push	r29
    5a76:	7b 01       	movw	r14, r22
	 unsigned int tim;
	 tim=ch;
	 tim=tim*1000/time;
    5a78:	28 ee       	ldi	r18, 0xE8	; 232
    5a7a:	33 e0       	ldi	r19, 0x03	; 3
    5a7c:	ac 01       	movw	r20, r24
    5a7e:	42 9f       	mul	r20, r18
    5a80:	c0 01       	movw	r24, r0
    5a82:	43 9f       	mul	r20, r19
    5a84:	90 0d       	add	r25, r0
    5a86:	52 9f       	mul	r21, r18
    5a88:	90 0d       	add	r25, r0
    5a8a:	11 24       	eor	r1, r1
    5a8c:	84 d7       	rcall	.+3848   	; 0x6996 <__udivmodhi4>
	 while(tim--)
    5a8e:	61 15       	cp	r22, r1
    5a90:	71 05       	cpc	r23, r1
    5a92:	81 f0       	breq	.+32     	; 0x5ab4 <Sound+0x4a>
    5a94:	8b 01       	movw	r16, r22
	 {
		 MelOn;
    5a96:	c5 e6       	ldi	r28, 0x65	; 101
    5a98:	d0 e0       	ldi	r29, 0x00	; 0
    5a9a:	88 81       	ld	r24, Y
    5a9c:	80 61       	ori	r24, 0x10	; 16
    5a9e:	88 83       	st	Y, r24
		 delay_us_Melody(time);
    5aa0:	c7 01       	movw	r24, r14
    5aa2:	d4 df       	rcall	.-88     	; 0x5a4c <delay_us_Melody>
		 MelOff;
    5aa4:	88 81       	ld	r24, Y
    5aa6:	8f 7e       	andi	r24, 0xEF	; 239
    5aa8:	88 83       	st	Y, r24
		 delay_us_Melody(time);
    5aaa:	c7 01       	movw	r24, r14
    5aac:	cf df       	rcall	.-98     	; 0x5a4c <delay_us_Melody>
    5aae:	01 50       	subi	r16, 0x01	; 1
    5ab0:	11 09       	sbc	r17, r1
 void Sound(unsigned int ch, unsigned int time)
 {
	 unsigned int tim;
	 tim=ch;
	 tim=tim*1000/time;
	 while(tim--)
    5ab2:	99 f7       	brne	.-26     	; 0x5a9a <Sound+0x30>
		 delay_us_Melody(time);
		 MelOff;
		 delay_us_Melody(time);
	 }

 }
    5ab4:	df 91       	pop	r29
    5ab6:	cf 91       	pop	r28
    5ab8:	1f 91       	pop	r17
    5aba:	0f 91       	pop	r16
    5abc:	ff 90       	pop	r15
    5abe:	ef 90       	pop	r14
    5ac0:	08 95       	ret

00005ac2 <S_Start>:
 
 void S_Start(){
	 Sound(BB, BRe);
    5ac2:	62 eb       	ldi	r22, 0xB2	; 178
    5ac4:	70 e0       	ldi	r23, 0x00	; 0
    5ac6:	83 e2       	ldi	r24, 0x23	; 35
    5ac8:	90 e0       	ldi	r25, 0x00	; 0
    5aca:	cf df       	rcall	.-98     	; 0x5a6a <Sound>
	 Sound(BB, BSo);
    5acc:	66 e8       	ldi	r22, 0x86	; 134
    5ace:	70 e0       	ldi	r23, 0x00	; 0
    5ad0:	83 e2       	ldi	r24, 0x23	; 35
    5ad2:	90 e0       	ldi	r25, 0x00	; 0
    5ad4:	ca df       	rcall	.-108    	; 0x5a6a <Sound>
	 Sound(BB, BSo);
    5ad6:	66 e8       	ldi	r22, 0x86	; 134
    5ad8:	70 e0       	ldi	r23, 0x00	; 0
    5ada:	83 e2       	ldi	r24, 0x23	; 35
    5adc:	90 e0       	ldi	r25, 0x00	; 0
    5ade:	c5 df       	rcall	.-118    	; 0x5a6a <Sound>
	 delay_us_Melody(200);
    5ae0:	88 ec       	ldi	r24, 0xC8	; 200
    5ae2:	90 e0       	ldi	r25, 0x00	; 0
    5ae4:	b3 df       	rcall	.-154    	; 0x5a4c <delay_us_Melody>
    5ae6:	62 eb       	ldi	r22, 0xB2	; 178
	 Sound(BB, BRe);
    5ae8:	70 e0       	ldi	r23, 0x00	; 0
    5aea:	83 e2       	ldi	r24, 0x23	; 35
    5aec:	90 e0       	ldi	r25, 0x00	; 0
    5aee:	bd df       	rcall	.-134    	; 0x5a6a <Sound>
    5af0:	66 e8       	ldi	r22, 0x86	; 134
	 Sound(BB, BSo);
    5af2:	70 e0       	ldi	r23, 0x00	; 0
    5af4:	83 e2       	ldi	r24, 0x23	; 35
    5af6:	90 e0       	ldi	r25, 0x00	; 0
    5af8:	b8 df       	rcall	.-144    	; 0x5a6a <Sound>
    5afa:	66 e8       	ldi	r22, 0x86	; 134
	 Sound(BB, BSo);
    5afc:	70 e0       	ldi	r23, 0x00	; 0
    5afe:	83 e2       	ldi	r24, 0x23	; 35
    5b00:	90 e0       	ldi	r25, 0x00	; 0
    5b02:	b3 df       	rcall	.-154    	; 0x5a6a <Sound>
    5b04:	88 ec       	ldi	r24, 0xC8	; 200
	 delay_us_Melody(200);	 
    5b06:	90 e0       	ldi	r25, 0x00	; 0
    5b08:	a1 df       	rcall	.-190    	; 0x5a4c <delay_us_Melody>
    5b0a:	66 e8       	ldi	r22, 0x86	; 134
	 Sound(BB, BSo);
    5b0c:	70 e0       	ldi	r23, 0x00	; 0
    5b0e:	83 e2       	ldi	r24, 0x23	; 35
    5b10:	90 e0       	ldi	r25, 0x00	; 0
    5b12:	ab df       	rcall	.-170    	; 0x5a6a <Sound>
    5b14:	62 eb       	ldi	r22, 0xB2	; 178
	 Sound(BB, BRe);
    5b16:	70 e0       	ldi	r23, 0x00	; 0
    5b18:	83 e2       	ldi	r24, 0x23	; 35
    5b1a:	90 e0       	ldi	r25, 0x00	; 0
    5b1c:	a6 df       	rcall	.-180    	; 0x5a6a <Sound>
    5b1e:	66 e8       	ldi	r22, 0x86	; 134
	 Sound(BB, BSo);
    5b20:	70 e0       	ldi	r23, 0x00	; 0
    5b22:	83 e2       	ldi	r24, 0x23	; 35
    5b24:	90 e0       	ldi	r25, 0x00	; 0
    5b26:	a1 df       	rcall	.-190    	; 0x5a6a <Sound>
    5b28:	6b e6       	ldi	r22, 0x6B	; 107
	 Sound(BB, BSi);
    5b2a:	70 e0       	ldi	r23, 0x00	; 0
    5b2c:	83 e2       	ldi	r24, 0x23	; 35
    5b2e:	90 e0       	ldi	r25, 0x00	; 0
    5b30:	9c df       	rcall	.-200    	; 0x5a6a <Sound>
    5b32:	6a e5       	ldi	r22, 0x5A	; 90
	 Sound(BB, HRe);
    5b34:	70 e0       	ldi	r23, 0x00	; 0
    5b36:	83 e2       	ldi	r24, 0x23	; 35
    5b38:	90 e0       	ldi	r25, 0x00	; 0
    5b3a:	97 df       	rcall	.-210    	; 0x5a6a <Sound>
    5b3c:	6b e6       	ldi	r22, 0x6B	; 107
	 Sound(BB, BSi);
    5b3e:	70 e0       	ldi	r23, 0x00	; 0
    5b40:	83 e2       	ldi	r24, 0x23	; 35
    5b42:	90 e0       	ldi	r25, 0x00	; 0
    5b44:	92 df       	rcall	.-220    	; 0x5a6a <Sound>
    5b46:	88 ec       	ldi	r24, 0xC8	; 200
	 delay_us_Melody(200);	 
    5b48:	90 e0       	ldi	r25, 0x00	; 0
    5b4a:	80 df       	rcall	.-256    	; 0x5a4c <delay_us_Melody>
    5b4c:	6a e5       	ldi	r22, 0x5A	; 90
	 Sound(BB, HRe);	 
    5b4e:	70 e0       	ldi	r23, 0x00	; 0
    5b50:	83 e2       	ldi	r24, 0x23	; 35
    5b52:	90 e0       	ldi	r25, 0x00	; 0
    5b54:	8a df       	rcall	.-236    	; 0x5a6a <Sound>
    5b56:	6b e6       	ldi	r22, 0x6B	; 107
	 Sound(BB, BSi);	   
    5b58:	70 e0       	ldi	r23, 0x00	; 0
    5b5a:	83 e2       	ldi	r24, 0x23	; 35
    5b5c:	90 e0       	ldi	r25, 0x00	; 0
    5b5e:	85 df       	rcall	.-246    	; 0x5a6a <Sound>
    5b60:	6b e6       	ldi	r22, 0x6B	; 107
	 Sound(BB, BSi);	 
    5b62:	70 e0       	ldi	r23, 0x00	; 0
    5b64:	83 e2       	ldi	r24, 0x23	; 35
    5b66:	90 e0       	ldi	r25, 0x00	; 0
    5b68:	80 df       	rcall	.-256    	; 0x5a6a <Sound>
    5b6a:	88 ec       	ldi	r24, 0xC8	; 200
	 delay_us_Melody(200);	 
    5b6c:	90 e0       	ldi	r25, 0x00	; 0
    5b6e:	6e df       	rcall	.-292    	; 0x5a4c <delay_us_Melody>
    5b70:	65 e6       	ldi	r22, 0x65	; 101
	 Sound(BB, HDo);
    5b72:	70 e0       	ldi	r23, 0x00	; 0
    5b74:	83 e2       	ldi	r24, 0x23	; 35
    5b76:	90 e0       	ldi	r25, 0x00	; 0
    5b78:	78 df       	rcall	.-272    	; 0x5a6a <Sound>
    5b7a:	60 e7       	ldi	r22, 0x70	; 112
	 Sound(BB, BLa);
    5b7c:	70 e0       	ldi	r23, 0x00	; 0
    5b7e:	83 e2       	ldi	r24, 0x23	; 35
    5b80:	90 e0       	ldi	r25, 0x00	; 0
    5b82:	73 df       	rcall	.-282    	; 0x5a6a <Sound>
    5b84:	60 e7       	ldi	r22, 0x70	; 112
	 Sound(BB, BLa);
    5b86:	70 e0       	ldi	r23, 0x00	; 0
    5b88:	83 e2       	ldi	r24, 0x23	; 35
    5b8a:	90 e0       	ldi	r25, 0x00	; 0
    5b8c:	6e df       	rcall	.-292    	; 0x5a6a <Sound>
    5b8e:	88 ec       	ldi	r24, 0xC8	; 200
	 delay_us_Melody(200);	 
    5b90:	90 e0       	ldi	r25, 0x00	; 0
    5b92:	5c df       	rcall	.-328    	; 0x5a4c <delay_us_Melody>
    5b94:	66 e8       	ldi	r22, 0x86	; 134
	 Sound(BB, BSo);	
    5b96:	70 e0       	ldi	r23, 0x00	; 0
    5b98:	83 e2       	ldi	r24, 0x23	; 35
    5b9a:	90 e0       	ldi	r25, 0x00	; 0
    5b9c:	66 df       	rcall	.-308    	; 0x5a6a <Sound>
    5b9e:	6b e6       	ldi	r22, 0x6B	; 107
	 Sound(BB, BSi);
    5ba0:	70 e0       	ldi	r23, 0x00	; 0
    5ba2:	83 e2       	ldi	r24, 0x23	; 35
    5ba4:	90 e0       	ldi	r25, 0x00	; 0
    5ba6:	61 df       	rcall	.-318    	; 0x5a6a <Sound>
	 Sound(BB, BSi);	
    5ba8:	6b e6       	ldi	r22, 0x6B	; 107
    5baa:	70 e0       	ldi	r23, 0x00	; 0
    5bac:	83 e2       	ldi	r24, 0x23	; 35
    5bae:	90 e0       	ldi	r25, 0x00	; 0
    5bb0:	5c df       	rcall	.-328    	; 0x5a6a <Sound>
	 Sound(BB, BLa);
    5bb2:	60 e7       	ldi	r22, 0x70	; 112
    5bb4:	70 e0       	ldi	r23, 0x00	; 0
    5bb6:	83 e2       	ldi	r24, 0x23	; 35
    5bb8:	90 e0       	ldi	r25, 0x00	; 0
    5bba:	57 df       	rcall	.-338    	; 0x5a6a <Sound>
	 Sound(BB, BSo);	 
    5bbc:	66 e8       	ldi	r22, 0x86	; 134
    5bbe:	70 e0       	ldi	r23, 0x00	; 0
    5bc0:	83 e2       	ldi	r24, 0x23	; 35
    5bc2:	90 e0       	ldi	r25, 0x00	; 0
	 Sound(BB, BRe);
    5bc4:	52 df       	rcall	.-348    	; 0x5a6a <Sound>
    5bc6:	62 eb       	ldi	r22, 0xB2	; 178
    5bc8:	70 e0       	ldi	r23, 0x00	; 0
    5bca:	83 e2       	ldi	r24, 0x23	; 35
    5bcc:	90 e0       	ldi	r25, 0x00	; 0
	 delay_us_Melody(200);	 
    5bce:	4d df       	rcall	.-358    	; 0x5a6a <Sound>
    5bd0:	88 ec       	ldi	r24, 0xC8	; 200
    5bd2:	90 e0       	ldi	r25, 0x00	; 0
	 Sound(BB, BRe);
    5bd4:	3b df       	rcall	.-394    	; 0x5a4c <delay_us_Melody>
    5bd6:	62 eb       	ldi	r22, 0xB2	; 178
    5bd8:	70 e0       	ldi	r23, 0x00	; 0
    5bda:	83 e2       	ldi	r24, 0x23	; 35
    5bdc:	90 e0       	ldi	r25, 0x00	; 0
	 Sound(BB, BSo);
    5bde:	45 df       	rcall	.-374    	; 0x5a6a <Sound>
    5be0:	66 e8       	ldi	r22, 0x86	; 134
    5be2:	70 e0       	ldi	r23, 0x00	; 0
    5be4:	83 e2       	ldi	r24, 0x23	; 35
    5be6:	90 e0       	ldi	r25, 0x00	; 0
	 Sound(BB, BSo);
    5be8:	40 df       	rcall	.-384    	; 0x5a6a <Sound>
    5bea:	66 e8       	ldi	r22, 0x86	; 134
    5bec:	70 e0       	ldi	r23, 0x00	; 0
    5bee:	83 e2       	ldi	r24, 0x23	; 35
    5bf0:	90 e0       	ldi	r25, 0x00	; 0
	 delay_us_Melody(200);	 
    5bf2:	3b df       	rcall	.-394    	; 0x5a6a <Sound>
    5bf4:	88 ec       	ldi	r24, 0xC8	; 200
    5bf6:	90 e0       	ldi	r25, 0x00	; 0
	 Sound(BB, BRe);
    5bf8:	29 df       	rcall	.-430    	; 0x5a4c <delay_us_Melody>
    5bfa:	62 eb       	ldi	r22, 0xB2	; 178
    5bfc:	70 e0       	ldi	r23, 0x00	; 0
    5bfe:	83 e2       	ldi	r24, 0x23	; 35
    5c00:	90 e0       	ldi	r25, 0x00	; 0
	 Sound(BB, BSo);
    5c02:	33 df       	rcall	.-410    	; 0x5a6a <Sound>
    5c04:	66 e8       	ldi	r22, 0x86	; 134
    5c06:	70 e0       	ldi	r23, 0x00	; 0
    5c08:	83 e2       	ldi	r24, 0x23	; 35
    5c0a:	90 e0       	ldi	r25, 0x00	; 0
	 Sound(BB, BSo);
    5c0c:	2e df       	rcall	.-420    	; 0x5a6a <Sound>
    5c0e:	66 e8       	ldi	r22, 0x86	; 134
    5c10:	70 e0       	ldi	r23, 0x00	; 0
    5c12:	83 e2       	ldi	r24, 0x23	; 35
	 delay_us_Melody(200);	 
    5c14:	90 e0       	ldi	r25, 0x00	; 0
    5c16:	29 df       	rcall	.-430    	; 0x5a6a <Sound>
    5c18:	88 ec       	ldi	r24, 0xC8	; 200
	 Sound(BB, BSo);
    5c1a:	90 e0       	ldi	r25, 0x00	; 0
    5c1c:	17 df       	rcall	.-466    	; 0x5a4c <delay_us_Melody>
    5c1e:	66 e8       	ldi	r22, 0x86	; 134
    5c20:	70 e0       	ldi	r23, 0x00	; 0
    5c22:	83 e2       	ldi	r24, 0x23	; 35
	 Sound(BB, BRe);
    5c24:	90 e0       	ldi	r25, 0x00	; 0
    5c26:	21 df       	rcall	.-446    	; 0x5a6a <Sound>
    5c28:	62 eb       	ldi	r22, 0xB2	; 178
    5c2a:	70 e0       	ldi	r23, 0x00	; 0
    5c2c:	83 e2       	ldi	r24, 0x23	; 35
	 Sound(BB, BSo);
    5c2e:	90 e0       	ldi	r25, 0x00	; 0
    5c30:	1c df       	rcall	.-456    	; 0x5a6a <Sound>
    5c32:	66 e8       	ldi	r22, 0x86	; 134
    5c34:	70 e0       	ldi	r23, 0x00	; 0
    5c36:	83 e2       	ldi	r24, 0x23	; 35
	 Sound(BB, BSi);
    5c38:	90 e0       	ldi	r25, 0x00	; 0
    5c3a:	17 df       	rcall	.-466    	; 0x5a6a <Sound>
    5c3c:	6b e6       	ldi	r22, 0x6B	; 107
    5c3e:	70 e0       	ldi	r23, 0x00	; 0
    5c40:	83 e2       	ldi	r24, 0x23	; 35
	 Sound(BB, HRe);
    5c42:	90 e0       	ldi	r25, 0x00	; 0
    5c44:	12 df       	rcall	.-476    	; 0x5a6a <Sound>
    5c46:	6a e5       	ldi	r22, 0x5A	; 90
    5c48:	70 e0       	ldi	r23, 0x00	; 0
    5c4a:	83 e2       	ldi	r24, 0x23	; 35
	 Sound(BB, BSi);
    5c4c:	90 e0       	ldi	r25, 0x00	; 0
    5c4e:	0d df       	rcall	.-486    	; 0x5a6a <Sound>
    5c50:	6b e6       	ldi	r22, 0x6B	; 107
    5c52:	70 e0       	ldi	r23, 0x00	; 0
    5c54:	83 e2       	ldi	r24, 0x23	; 35
	 delay_us_Melody(200);	 
    5c56:	90 e0       	ldi	r25, 0x00	; 0
    5c58:	08 df       	rcall	.-496    	; 0x5a6a <Sound>
    5c5a:	88 ec       	ldi	r24, 0xC8	; 200
	 Sound(BB, HRe);
    5c5c:	90 e0       	ldi	r25, 0x00	; 0
    5c5e:	f6 de       	rcall	.-532    	; 0x5a4c <delay_us_Melody>
    5c60:	6a e5       	ldi	r22, 0x5A	; 90
    5c62:	70 e0       	ldi	r23, 0x00	; 0
    5c64:	83 e2       	ldi	r24, 0x23	; 35
	 Sound(BB, HDo);
    5c66:	90 e0       	ldi	r25, 0x00	; 0
    5c68:	00 df       	rcall	.-512    	; 0x5a6a <Sound>
    5c6a:	65 e6       	ldi	r22, 0x65	; 101
    5c6c:	70 e0       	ldi	r23, 0x00	; 0
    5c6e:	83 e2       	ldi	r24, 0x23	; 35
	 Sound(BB, BSi);
    5c70:	90 e0       	ldi	r25, 0x00	; 0
    5c72:	fb de       	rcall	.-522    	; 0x5a6a <Sound>
    5c74:	6b e6       	ldi	r22, 0x6B	; 107
    5c76:	70 e0       	ldi	r23, 0x00	; 0
    5c78:	83 e2       	ldi	r24, 0x23	; 35
    5c7a:	90 e0       	ldi	r25, 0x00	; 0
	 Sound(BB, BLa);
    5c7c:	f6 de       	rcall	.-532    	; 0x5a6a <Sound>
    5c7e:	60 e7       	ldi	r22, 0x70	; 112
    5c80:	70 e0       	ldi	r23, 0x00	; 0
    5c82:	83 e2       	ldi	r24, 0x23	; 35
    5c84:	90 e0       	ldi	r25, 0x00	; 0
    5c86:	f1 de       	rcall	.-542    	; 0x5a6a <Sound>
	 Sound(BB, BSo);
    5c88:	66 e8       	ldi	r22, 0x86	; 134
    5c8a:	70 e0       	ldi	r23, 0x00	; 0
    5c8c:	83 e2       	ldi	r24, 0x23	; 35
    5c8e:	90 e0       	ldi	r25, 0x00	; 0
    5c90:	ec de       	rcall	.-552    	; 0x5a6a <Sound>
    5c92:	66 e9       	ldi	r22, 0x96	; 150
	 Sound(BB, BFa);
    5c94:	70 e0       	ldi	r23, 0x00	; 0
    5c96:	83 e2       	ldi	r24, 0x23	; 35
    5c98:	90 e0       	ldi	r25, 0x00	; 0
    5c9a:	e7 de       	rcall	.-562    	; 0x5a6a <Sound>
    5c9c:	6f e9       	ldi	r22, 0x9F	; 159
    5c9e:	70 e0       	ldi	r23, 0x00	; 0
	 Sound(BB, BMi);
    5ca0:	83 e2       	ldi	r24, 0x23	; 35
    5ca2:	90 e0       	ldi	r25, 0x00	; 0
    5ca4:	e2 de       	rcall	.-572    	; 0x5a6a <Sound>
    5ca6:	62 eb       	ldi	r22, 0xB2	; 178
    5ca8:	70 e0       	ldi	r23, 0x00	; 0
    5caa:	83 e2       	ldi	r24, 0x23	; 35
	 Sound(BB, BRe);
    5cac:	90 e0       	ldi	r25, 0x00	; 0
    5cae:	dd de       	rcall	.-582    	; 0x5a6a <Sound>
    5cb0:	6f e9       	ldi	r22, 0x9F	; 159
    5cb2:	70 e0       	ldi	r23, 0x00	; 0
    5cb4:	83 e2       	ldi	r24, 0x23	; 35
    5cb6:	90 e0       	ldi	r25, 0x00	; 0
	 Sound(BB, BMi);	 	 
    5cb8:	d8 de       	rcall	.-592    	; 0x5a6a <Sound>
    5cba:	66 e9       	ldi	r22, 0x96	; 150
    5cbc:	70 e0       	ldi	r23, 0x00	; 0
    5cbe:	83 e2       	ldi	r24, 0x23	; 35
    5cc0:	90 e0       	ldi	r25, 0x00	; 0
    5cc2:	d3 de       	rcall	.-602    	; 0x5a6a <Sound>
	 Sound(BB, BFa);	
    5cc4:	66 e8       	ldi	r22, 0x86	; 134
    5cc6:	70 e0       	ldi	r23, 0x00	; 0
    5cc8:	83 e2       	ldi	r24, 0x23	; 35
    5cca:	90 e0       	ldi	r25, 0x00	; 0
    5ccc:	ce de       	rcall	.-612    	; 0x5a6a <Sound>
    5cce:	2f ef       	ldi	r18, 0xFF	; 255
	 Sound(BB, BSo);
    5cd0:	83 ed       	ldi	r24, 0xD3	; 211
    5cd2:	90 e3       	ldi	r25, 0x30	; 48
    5cd4:	21 50       	subi	r18, 0x01	; 1
    5cd6:	80 40       	sbci	r24, 0x00	; 0
    5cd8:	90 40       	sbci	r25, 0x00	; 0
    5cda:	e1 f7       	brne	.-8      	; 0x5cd4 <S_Start+0x212>
	#else
		//round up by default
		__ticks_dc = (uint32_t)(ceil(fabs(__tmp)));
	#endif

	__builtin_avr_delay_cycles(__ticks_dc);
    5cdc:	00 c0       	rjmp	.+0      	; 0x5cde <S_Start+0x21c>
    5cde:	00 00       	nop
    5ce0:	08 95       	ret

00005ce2 <S_Ending>:
    5ce2:	62 eb       	ldi	r22, 0xB2	; 178
    5ce4:	70 e0       	ldi	r23, 0x00	; 0
    5ce6:	83 e2       	ldi	r24, 0x23	; 35
    5ce8:	90 e0       	ldi	r25, 0x00	; 0
    5cea:	bf de       	rcall	.-642    	; 0x5a6a <Sound>
    5cec:	62 eb       	ldi	r22, 0xB2	; 178
    5cee:	70 e0       	ldi	r23, 0x00	; 0
	 _delay_ms(1000);	  	 	   
 }
 
 void S_Ending(){
	 Sound(BB, BRe);
	 Sound(BB, BRe);
    5cf0:	83 e2       	ldi	r24, 0x23	; 35
    5cf2:	90 e0       	ldi	r25, 0x00	; 0
    5cf4:	ba de       	rcall	.-652    	; 0x5a6a <Sound>
	 Sound(BB, BMi);
    5cf6:	6f e9       	ldi	r22, 0x9F	; 159
    5cf8:	70 e0       	ldi	r23, 0x00	; 0
    5cfa:	83 e2       	ldi	r24, 0x23	; 35
    5cfc:	90 e0       	ldi	r25, 0x00	; 0
    5cfe:	b5 de       	rcall	.-662    	; 0x5a6a <Sound>
	 Sound(BB, BRe);
    5d00:	62 eb       	ldi	r22, 0xB2	; 178
    5d02:	70 e0       	ldi	r23, 0x00	; 0
    5d04:	83 e2       	ldi	r24, 0x23	; 35
    5d06:	90 e0       	ldi	r25, 0x00	; 0
    5d08:	b0 de       	rcall	.-672    	; 0x5a6a <Sound>
	 Sound(BB, BSo);
    5d0a:	66 e8       	ldi	r22, 0x86	; 134
    5d0c:	70 e0       	ldi	r23, 0x00	; 0
    5d0e:	83 e2       	ldi	r24, 0x23	; 35
    5d10:	90 e0       	ldi	r25, 0x00	; 0
    5d12:	ab de       	rcall	.-682    	; 0x5a6a <Sound>
	 Sound(BB, BSo);
    5d14:	66 e8       	ldi	r22, 0x86	; 134
    5d16:	70 e0       	ldi	r23, 0x00	; 0
    5d18:	83 e2       	ldi	r24, 0x23	; 35
    5d1a:	90 e0       	ldi	r25, 0x00	; 0
    5d1c:	a6 de       	rcall	.-692    	; 0x5a6a <Sound>
    5d1e:	2f ef       	ldi	r18, 0xFF	; 255
    5d20:	83 ec       	ldi	r24, 0xC3	; 195
    5d22:	99 e0       	ldi	r25, 0x09	; 9
    5d24:	21 50       	subi	r18, 0x01	; 1
    5d26:	80 40       	sbci	r24, 0x00	; 0
    5d28:	90 40       	sbci	r25, 0x00	; 0
    5d2a:	e1 f7       	brne	.-8      	; 0x5d24 <S_Ending+0x42>
    5d2c:	00 c0       	rjmp	.+0      	; 0x5d2e <S_Ending+0x4c>
    5d2e:	00 00       	nop
_delay_ms(200);
	 Sound(BB, BRe);
    5d30:	62 eb       	ldi	r22, 0xB2	; 178
    5d32:	70 e0       	ldi	r23, 0x00	; 0
    5d34:	83 e2       	ldi	r24, 0x23	; 35
    5d36:	90 e0       	ldi	r25, 0x00	; 0
    5d38:	98 de       	rcall	.-720    	; 0x5a6a <Sound>
	 Sound(BB, BRe);
    5d3a:	62 eb       	ldi	r22, 0xB2	; 178
    5d3c:	70 e0       	ldi	r23, 0x00	; 0
    5d3e:	83 e2       	ldi	r24, 0x23	; 35
    5d40:	90 e0       	ldi	r25, 0x00	; 0
    5d42:	93 de       	rcall	.-730    	; 0x5a6a <Sound>
	 Sound(BB, BMi);
    5d44:	6f e9       	ldi	r22, 0x9F	; 159
    5d46:	70 e0       	ldi	r23, 0x00	; 0
    5d48:	83 e2       	ldi	r24, 0x23	; 35
    5d4a:	90 e0       	ldi	r25, 0x00	; 0
    5d4c:	8e de       	rcall	.-740    	; 0x5a6a <Sound>
	 Sound(BB, BRe);
    5d4e:	62 eb       	ldi	r22, 0xB2	; 178
    5d50:	70 e0       	ldi	r23, 0x00	; 0
    5d52:	83 e2       	ldi	r24, 0x23	; 35
    5d54:	90 e0       	ldi	r25, 0x00	; 0
    5d56:	89 de       	rcall	.-750    	; 0x5a6a <Sound>
	 Sound(BB, BLa);
    5d58:	60 e7       	ldi	r22, 0x70	; 112
    5d5a:	70 e0       	ldi	r23, 0x00	; 0
    5d5c:	83 e2       	ldi	r24, 0x23	; 35
    5d5e:	90 e0       	ldi	r25, 0x00	; 0
    5d60:	84 de       	rcall	.-760    	; 0x5a6a <Sound>
	 Sound(BB, BLa);
    5d62:	60 e7       	ldi	r22, 0x70	; 112
    5d64:	70 e0       	ldi	r23, 0x00	; 0
    5d66:	83 e2       	ldi	r24, 0x23	; 35
    5d68:	90 e0       	ldi	r25, 0x00	; 0
    5d6a:	7f de       	rcall	.-770    	; 0x5a6a <Sound>
    5d6c:	66 e8       	ldi	r22, 0x86	; 134
	 Sound(BB, BSo);
    5d6e:	70 e0       	ldi	r23, 0x00	; 0
    5d70:	83 e2       	ldi	r24, 0x23	; 35
    5d72:	90 e0       	ldi	r25, 0x00	; 0
    5d74:	7a de       	rcall	.-780    	; 0x5a6a <Sound>
    5d76:	2f ef       	ldi	r18, 0xFF	; 255
    5d78:	83 ec       	ldi	r24, 0xC3	; 195
    5d7a:	99 e0       	ldi	r25, 0x09	; 9
    5d7c:	21 50       	subi	r18, 0x01	; 1
    5d7e:	80 40       	sbci	r24, 0x00	; 0
    5d80:	90 40       	sbci	r25, 0x00	; 0
    5d82:	e1 f7       	brne	.-8      	; 0x5d7c <S_Ending+0x9a>
    5d84:	00 c0       	rjmp	.+0      	; 0x5d86 <S_Ending+0xa4>
    5d86:	00 00       	nop
_delay_ms(200);
	 Sound(BB, BRe);
    5d88:	62 eb       	ldi	r22, 0xB2	; 178
    5d8a:	70 e0       	ldi	r23, 0x00	; 0
    5d8c:	83 e2       	ldi	r24, 0x23	; 35
    5d8e:	90 e0       	ldi	r25, 0x00	; 0
    5d90:	6c de       	rcall	.-808    	; 0x5a6a <Sound>
	 Sound(BB, BRe);
    5d92:	62 eb       	ldi	r22, 0xB2	; 178
    5d94:	70 e0       	ldi	r23, 0x00	; 0
    5d96:	83 e2       	ldi	r24, 0x23	; 35
    5d98:	90 e0       	ldi	r25, 0x00	; 0
    5d9a:	67 de       	rcall	.-818    	; 0x5a6a <Sound>
	 Sound(BB, HRe);
    5d9c:	6a e5       	ldi	r22, 0x5A	; 90
    5d9e:	70 e0       	ldi	r23, 0x00	; 0
    5da0:	83 e2       	ldi	r24, 0x23	; 35
    5da2:	90 e0       	ldi	r25, 0x00	; 0
    5da4:	62 de       	rcall	.-828    	; 0x5a6a <Sound>
	 Sound(BB, BSi);
    5da6:	6b e6       	ldi	r22, 0x6B	; 107
    5da8:	70 e0       	ldi	r23, 0x00	; 0
    5daa:	83 e2       	ldi	r24, 0x23	; 35
    5dac:	90 e0       	ldi	r25, 0x00	; 0
    5dae:	5d de       	rcall	.-838    	; 0x5a6a <Sound>
	 Sound(BB, BSo);
    5db0:	66 e8       	ldi	r22, 0x86	; 134
    5db2:	70 e0       	ldi	r23, 0x00	; 0
    5db4:	83 e2       	ldi	r24, 0x23	; 35
    5db6:	90 e0       	ldi	r25, 0x00	; 0
    5db8:	58 de       	rcall	.-848    	; 0x5a6a <Sound>
	 Sound(BB, BFa);
    5dba:	66 e9       	ldi	r22, 0x96	; 150
    5dbc:	70 e0       	ldi	r23, 0x00	; 0
    5dbe:	83 e2       	ldi	r24, 0x23	; 35
    5dc0:	90 e0       	ldi	r25, 0x00	; 0
    5dc2:	53 de       	rcall	.-858    	; 0x5a6a <Sound>
	 Sound(BB, BMi);
    5dc4:	6f e9       	ldi	r22, 0x9F	; 159
    5dc6:	70 e0       	ldi	r23, 0x00	; 0
    5dc8:	83 e2       	ldi	r24, 0x23	; 35
    5dca:	90 e0       	ldi	r25, 0x00	; 0
    5dcc:	4e de       	rcall	.-868    	; 0x5a6a <Sound>
	 
	 Sound(BB, HDo);
    5dce:	65 e6       	ldi	r22, 0x65	; 101
    5dd0:	70 e0       	ldi	r23, 0x00	; 0
    5dd2:	83 e2       	ldi	r24, 0x23	; 35
    5dd4:	90 e0       	ldi	r25, 0x00	; 0
    5dd6:	49 de       	rcall	.-878    	; 0x5a6a <Sound>
	 Sound(BB, HDo);
    5dd8:	65 e6       	ldi	r22, 0x65	; 101
    5dda:	70 e0       	ldi	r23, 0x00	; 0
    5ddc:	83 e2       	ldi	r24, 0x23	; 35
    5dde:	90 e0       	ldi	r25, 0x00	; 0
    5de0:	44 de       	rcall	.-888    	; 0x5a6a <Sound>
		 Sound(BB, BSi);
    5de2:	6b e6       	ldi	r22, 0x6B	; 107
    5de4:	70 e0       	ldi	r23, 0x00	; 0
    5de6:	83 e2       	ldi	r24, 0x23	; 35
    5de8:	90 e0       	ldi	r25, 0x00	; 0
    5dea:	3f de       	rcall	.-898    	; 0x5a6a <Sound>
 	 Sound(BB, BSo);
    5dec:	66 e8       	ldi	r22, 0x86	; 134
    5dee:	70 e0       	ldi	r23, 0x00	; 0
    5df0:	83 e2       	ldi	r24, 0x23	; 35
    5df2:	90 e0       	ldi	r25, 0x00	; 0
    5df4:	3a de       	rcall	.-908    	; 0x5a6a <Sound>
    5df6:	60 e7       	ldi	r22, 0x70	; 112
	 Sound(BB, BLa);
    5df8:	70 e0       	ldi	r23, 0x00	; 0
    5dfa:	83 e2       	ldi	r24, 0x23	; 35
    5dfc:	90 e0       	ldi	r25, 0x00	; 0
    5dfe:	35 de       	rcall	.-918    	; 0x5a6a <Sound>
    5e00:	60 e7       	ldi	r22, 0x70	; 112
    5e02:	70 e0       	ldi	r23, 0x00	; 0
	 Sound(BB, BLa);
    5e04:	83 e2       	ldi	r24, 0x23	; 35
    5e06:	90 e0       	ldi	r25, 0x00	; 0
    5e08:	30 de       	rcall	.-928    	; 0x5a6a <Sound>
    5e0a:	66 e8       	ldi	r22, 0x86	; 134
    5e0c:	70 e0       	ldi	r23, 0x00	; 0
    5e0e:	83 e2       	ldi	r24, 0x23	; 35
	 Sound(BB, BSo);
    5e10:	90 e0       	ldi	r25, 0x00	; 0
    5e12:	2b ce       	rjmp	.-938    	; 0x5a6a <Sound>
    5e14:	08 95       	ret

00005e16 <S_Pass>:
    5e16:	65 e6       	ldi	r22, 0x65	; 101
    5e18:	70 e0       	ldi	r23, 0x00	; 0
    5e1a:	83 e2       	ldi	r24, 0x23	; 35
    5e1c:	90 e0       	ldi	r25, 0x00	; 0
	 
 }
 
 
 void S_Pass(){
	 Sound(BB, HDo);
    5e1e:	25 de       	rcall	.-950    	; 0x5a6a <Sound>
	 Sound(BB, HDo);
    5e20:	65 e6       	ldi	r22, 0x65	; 101
    5e22:	70 e0       	ldi	r23, 0x00	; 0
    5e24:	83 e2       	ldi	r24, 0x23	; 35
    5e26:	90 e0       	ldi	r25, 0x00	; 0
    5e28:	20 ce       	rjmp	.-960    	; 0x5a6a <Sound>
    5e2a:	08 95       	ret

00005e2c <S_Fail>:
 }
 
 void S_Fail(){
	 Sound(BB, LDo);
    5e2c:	6b e8       	ldi	r22, 0x8B	; 139
    5e2e:	71 e0       	ldi	r23, 0x01	; 1
    5e30:	83 e2       	ldi	r24, 0x23	; 35
    5e32:	90 e0       	ldi	r25, 0x00	; 0
    5e34:	1a de       	rcall	.-972    	; 0x5a6a <Sound>
	 Sound(BB, LDo);
    5e36:	6b e8       	ldi	r22, 0x8B	; 139
    5e38:	71 e0       	ldi	r23, 0x01	; 1
    5e3a:	83 e2       	ldi	r24, 0x23	; 35
    5e3c:	90 e0       	ldi	r25, 0x00	; 0
    5e3e:	15 ce       	rjmp	.-982    	; 0x5a6a <Sound>
    5e40:	08 95       	ret

00005e42 <catching>:
#include "_main.h"
#include "sensor.h"
#include "_glcd2.h"


int catching(int flag){
    5e42:	1f 93       	push	r17
    5e44:	cf 93       	push	r28
    5e46:	df 93       	push	r29
    5e48:	cd b7       	in	r28, 0x3d	; 61
    5e4a:	de b7       	in	r29, 0x3e	; 62
    5e4c:	2c 97       	sbiw	r28, 0x0c	; 12
    5e4e:	0f b6       	in	r0, 0x3f	; 63
    5e50:	f8 94       	cli
    5e52:	de bf       	out	0x3e, r29	; 62
    5e54:	0f be       	out	0x3f, r0	; 63
    5e56:	cd bf       	out	0x3d, r28	; 61
	flag=0;
	int x_after,x_before,y_after,y_before,z_after,z_before;
	ScreenBuffer_clear();
    5e58:	9a d4       	rcall	.+2356   	; 0x678e <ScreenBuffer_clear>
	lcd_clear();
    5e5a:	0f d4       	rcall	.+2078   	; 0x667a <lcd_clear>
    5e5c:	4b e3       	ldi	r20, 0x3B	; 59
	lcd_string(4,2,"Throw fishing rod");
    5e5e:	53 e0       	ldi	r21, 0x03	; 3
    5e60:	62 e0       	ldi	r22, 0x02	; 2
    5e62:	84 e0       	ldi	r24, 0x04	; 4
    5e64:	68 d4       	rcall	.+2256   	; 0x6736 <lcd_string>
    5e66:	ae 01       	movw	r20, r28
	acc(&x_before, &y_before,&z_before);
    5e68:	45 5f       	subi	r20, 0xF5	; 245
    5e6a:	5f 4f       	sbci	r21, 0xFF	; 255
    5e6c:	be 01       	movw	r22, r28
    5e6e:	69 5f       	subi	r22, 0xF9	; 249
    5e70:	7f 4f       	sbci	r23, 0xFF	; 255
    5e72:	ce 01       	movw	r24, r28
    5e74:	03 96       	adiw	r24, 0x03	; 3
    5e76:	8f d2       	rcall	.+1310   	; 0x6396 <acc>
    5e78:	11 e0       	ldi	r17, 0x01	; 1
    5e7a:	2f ef       	ldi	r18, 0xFF	; 255
    5e7c:	89 e6       	ldi	r24, 0x69	; 105
    5e7e:	98 e1       	ldi	r25, 0x18	; 24
    5e80:	21 50       	subi	r18, 0x01	; 1
    5e82:	80 40       	sbci	r24, 0x00	; 0
    5e84:	90 40       	sbci	r25, 0x00	; 0
    5e86:	e1 f7       	brne	.-8      	; 0x5e80 <catching+0x3e>
    5e88:	00 c0       	rjmp	.+0      	; 0x5e8a <catching+0x48>
    5e8a:	00 00       	nop
	
	for(int i=1;i<=5;i++)
	{
		_delay_ms(500);
		lcd_xy(7,8);
    5e8c:	68 e0       	ldi	r22, 0x08	; 8
    5e8e:	87 e0       	ldi	r24, 0x07	; 7
    5e90:	0f d4       	rcall	.+2078   	; 0x66b0 <lcd_xy>
		GLCD_1DigitDecimal(i,1);
    5e92:	61 e0       	ldi	r22, 0x01	; 1
    5e94:	81 2f       	mov	r24, r17
    5e96:	8d d4       	rcall	.+2330   	; 0x67b2 <GLCD_1DigitDecimal>
    5e98:	1f 5f       	subi	r17, 0xFF	; 255
    5e9a:	16 30       	cpi	r17, 0x06	; 6
	ScreenBuffer_clear();
	lcd_clear();
	lcd_string(4,2,"Throw fishing rod");
	acc(&x_before, &y_before,&z_before);
	
	for(int i=1;i<=5;i++)
    5e9c:	71 f7       	brne	.-36     	; 0x5e7a <catching+0x38>
    5e9e:	ae 01       	movw	r20, r28
	{
		_delay_ms(500);
		lcd_xy(7,8);
		GLCD_1DigitDecimal(i,1);
	}
	acc(&x_after, &y_after,&z_after);
    5ea0:	47 5f       	subi	r20, 0xF7	; 247
    5ea2:	5f 4f       	sbci	r21, 0xFF	; 255
    5ea4:	be 01       	movw	r22, r28
    5ea6:	6b 5f       	subi	r22, 0xFB	; 251
    5ea8:	7f 4f       	sbci	r23, 0xFF	; 255
    5eaa:	ce 01       	movw	r24, r28
    5eac:	01 96       	adiw	r24, 0x01	; 1
    5eae:	73 d2       	rcall	.+1254   	; 0x6396 <acc>
    5eb0:	2f ef       	ldi	r18, 0xFF	; 255
    5eb2:	83 ed       	ldi	r24, 0xD3	; 211
    5eb4:	90 e3       	ldi	r25, 0x30	; 48
    5eb6:	21 50       	subi	r18, 0x01	; 1
    5eb8:	80 40       	sbci	r24, 0x00	; 0
    5eba:	90 40       	sbci	r25, 0x00	; 0
    5ebc:	e1 f7       	brne	.-8      	; 0x5eb6 <catching+0x74>
    5ebe:	00 c0       	rjmp	.+0      	; 0x5ec0 <catching+0x7e>
    5ec0:	00 00       	nop
	_delay_ms(1000);
	lcd_clear();
    5ec2:	db d3       	rcall	.+1974   	; 0x667a <lcd_clear>
    5ec4:	2f 81       	ldd	r18, Y+7	; 0x07
	
	if(y_before-y_after > 30){
		flag = 1;
    5ec6:	38 85       	ldd	r19, Y+8	; 0x08
    5ec8:	8d 81       	ldd	r24, Y+5	; 0x05
    5eca:	9e 81       	ldd	r25, Y+6	; 0x06
    5ecc:	28 1b       	sub	r18, r24
    5ece:	39 0b       	sbc	r19, r25
    5ed0:	81 e0       	ldi	r24, 0x01	; 1
    5ed2:	90 e0       	ldi	r25, 0x00	; 0
    5ed4:	2f 31       	cpi	r18, 0x1F	; 31
    5ed6:	31 05       	cpc	r19, r1
    5ed8:	14 f4       	brge	.+4      	; 0x5ede <catching+0x9c>
    5eda:	80 e0       	ldi	r24, 0x00	; 0
    5edc:	90 e0       	ldi	r25, 0x00	; 0
    5ede:	2c 96       	adiw	r28, 0x0c	; 12
		}else{
		flag = 0;
	}

	return flag;
}
    5ee0:	0f b6       	in	r0, 0x3f	; 63
    5ee2:	f8 94       	cli
    5ee4:	de bf       	out	0x3e, r29	; 62
    5ee6:	0f be       	out	0x3f, r0	; 63
    5ee8:	cd bf       	out	0x3d, r28	; 61
    5eea:	df 91       	pop	r29
    5eec:	cf 91       	pop	r28
    5eee:	1f 91       	pop	r17
    5ef0:	08 95       	ret

00005ef2 <__vector_1>:
void battle_end(int battle_flag,int enemy_count);
void fishing(int *x_char, int *y_char);
void ending();

//ISR
SIGNAL(INT0_vect) {	switch_flag =1;}
    5ef2:	1f 92       	push	r1
    5ef4:	0f 92       	push	r0
    5ef6:	0f b6       	in	r0, 0x3f	; 63
    5ef8:	0f 92       	push	r0
    5efa:	11 24       	eor	r1, r1
    5efc:	8f 93       	push	r24
    5efe:	9f 93       	push	r25
    5f00:	81 e0       	ldi	r24, 0x01	; 1
    5f02:	90 e0       	ldi	r25, 0x00	; 0
    5f04:	90 93 21 04 	sts	0x0421, r25	; 0x800421 <switch_flag+0x1>
    5f08:	80 93 20 04 	sts	0x0420, r24	; 0x800420 <switch_flag>
    5f0c:	9f 91       	pop	r25
    5f0e:	8f 91       	pop	r24
    5f10:	0f 90       	pop	r0
    5f12:	0f be       	out	0x3f, r0	; 63
    5f14:	0f 90       	pop	r0
    5f16:	1f 90       	pop	r1
    5f18:	18 95       	reti

00005f1a <glcd_char>:
		}
	
	
}

void glcd_char(int *x_char, int *y_char){
    5f1a:	ef 92       	push	r14
    5f1c:	ff 92       	push	r15
    5f1e:	0f 93       	push	r16
    5f20:	cf 93       	push	r28
    5f22:	df 93       	push	r29
    5f24:	ec 01       	movw	r28, r24
    5f26:	7b 01       	movw	r14, r22
	glcd_draw_bitmap(main_char[move],*x_char,*y_char,16,16);
    5f28:	e0 91 1a 04 	lds	r30, 0x041A	; 0x80041a <move>
    5f2c:	f0 91 1b 04 	lds	r31, 0x041B	; 0x80041b <move+0x1>
    5f30:	ee 0f       	add	r30, r30
    5f32:	ff 1f       	adc	r31, r31
    5f34:	ec 5b       	subi	r30, 0xBC	; 188
    5f36:	fe 4f       	sbci	r31, 0xFE	; 254
    5f38:	00 e1       	ldi	r16, 0x10	; 16
    5f3a:	20 e1       	ldi	r18, 0x10	; 16
    5f3c:	db 01       	movw	r26, r22
    5f3e:	4c 91       	ld	r20, X
    5f40:	68 81       	ld	r22, Y
    5f42:	80 81       	ld	r24, Z
    5f44:	91 81       	ldd	r25, Z+1	; 0x01
    5f46:	af d4       	rcall	.+2398   	; 0x68a6 <glcd_draw_bitmap>
	move = joystick_move_char(x_char,y_char);
    5f48:	b7 01       	movw	r22, r14
    5f4a:	ce 01       	movw	r24, r28
    5f4c:	67 d2       	rcall	.+1230   	; 0x641c <joystick_move_char>
    5f4e:	90 93 1b 04 	sts	0x041B, r25	; 0x80041b <move+0x1>
    5f52:	80 93 1a 04 	sts	0x041A, r24	; 0x80041a <move>
}
    5f56:	df 91       	pop	r29
    5f58:	cf 91       	pop	r28
    5f5a:	0f 91       	pop	r16
    5f5c:	ff 90       	pop	r15
    5f5e:	ef 90       	pop	r14
    5f60:	08 95       	ret

00005f62 <fishing>:

void fishing(int *x_char, int *y_char){
    5f62:	8f 92       	push	r8
    5f64:	9f 92       	push	r9
    5f66:	af 92       	push	r10
    5f68:	bf 92       	push	r11
    5f6a:	cf 92       	push	r12
    5f6c:	df 92       	push	r13
    5f6e:	ef 92       	push	r14
    5f70:	ff 92       	push	r15
    5f72:	0f 93       	push	r16
    5f74:	cf 93       	push	r28
    5f76:	df 93       	push	r29
    5f78:	4c 01       	movw	r8, r24
    5f7a:	5b 01       	movw	r10, r22
	flag2 = 0;
    5f7c:	10 92 1d 04 	sts	0x041D, r1	; 0x80041d <flag2+0x1>
    5f80:	10 92 1c 04 	sts	0x041C, r1	; 0x80041c <flag2>
    5f84:	0f 2e       	mov	r0, r31
    5f86:	fa e0       	ldi	r31, 0x0A	; 10
    5f88:	ef 2e       	mov	r14, r31
    5f8a:	f1 2c       	mov	r15, r1
    5f8c:	f0 2d       	mov	r31, r0
	int suc = 0;
    5f8e:	c1 2c       	mov	r12, r1
    5f90:	d1 2c       	mov	r13, r1
	int move;

	//10 
	while(flag2 == 0 && cnt <10){

		int pos = rand()%2; // 
    5f92:	7e d5       	rcall	.+2812   	; 0x6a90 <rand>
    5f94:	ec 01       	movw	r28, r24
		int ran = rand()%2; // 
    5f96:	7c d5       	rcall	.+2808   	; 0x6a90 <rand>
    5f98:	81 70       	andi	r24, 0x01	; 1
    5f9a:	90 78       	andi	r25, 0x80	; 128
    5f9c:	99 23       	and	r25, r25
    5f9e:	24 f4       	brge	.+8      	; 0x5fa8 <fishing+0x46>
    5fa0:	01 97       	sbiw	r24, 0x01	; 1
    5fa2:	8e 6f       	ori	r24, 0xFE	; 254
    5fa4:	9f 6f       	ori	r25, 0xFF	; 255
    5fa6:	01 96       	adiw	r24, 0x01	; 1
    5fa8:	c1 70       	andi	r28, 0x01	; 1
		
		if(pos==0){
    5faa:	d0 78       	andi	r29, 0x80	; 128
    5fac:	dd 23       	and	r29, r29
    5fae:	24 f4       	brge	.+8      	; 0x5fb8 <fishing+0x56>
    5fb0:	21 97       	sbiw	r28, 0x01	; 1
    5fb2:	ce 6f       	ori	r28, 0xFE	; 254
    5fb4:	df 6f       	ori	r29, 0xFF	; 255
    5fb6:	21 96       	adiw	r28, 0x01	; 1
    5fb8:	cd 2b       	or	r28, r29
    5fba:	41 f5       	brne	.+80     	; 0x600c <fishing+0xaa>
    5fbc:	88 0f       	add	r24, r24
			glcd_draw_bitmap(Rsea[ran],0,0,64,128);
    5fbe:	99 1f       	adc	r25, r25
    5fc0:	fc 01       	movw	r30, r24
    5fc2:	e0 5e       	subi	r30, 0xE0	; 224
    5fc4:	fe 4f       	sbci	r31, 0xFE	; 254
    5fc6:	00 e8       	ldi	r16, 0x80	; 128
    5fc8:	20 e4       	ldi	r18, 0x40	; 64
    5fca:	40 e0       	ldi	r20, 0x00	; 0
    5fcc:	60 e0       	ldi	r22, 0x00	; 0
    5fce:	80 81       	ld	r24, Z
    5fd0:	91 81       	ldd	r25, Z+1	; 0x01
    5fd2:	69 d4       	rcall	.+2258   	; 0x68a6 <glcd_draw_bitmap>
    5fd4:	4d e4       	ldi	r20, 0x4D	; 77
			lcd_string(7,4," >> Right!! >> ");
    5fd6:	53 e0       	ldi	r21, 0x03	; 3
    5fd8:	64 e0       	ldi	r22, 0x04	; 4
    5fda:	87 e0       	ldi	r24, 0x07	; 7
    5fdc:	ac d3       	rcall	.+1880   	; 0x6736 <lcd_string>
    5fde:	2f ef       	ldi	r18, 0xFF	; 255
    5fe0:	89 e6       	ldi	r24, 0x69	; 105
    5fe2:	98 e1       	ldi	r25, 0x18	; 24
    5fe4:	21 50       	subi	r18, 0x01	; 1
    5fe6:	80 40       	sbci	r24, 0x00	; 0
    5fe8:	90 40       	sbci	r25, 0x00	; 0
    5fea:	e1 f7       	brne	.-8      	; 0x5fe4 <fishing+0x82>
    5fec:	00 c0       	rjmp	.+0      	; 0x5fee <fishing+0x8c>
    5fee:	00 00       	nop
			_delay_ms(500);
			move = joystick_move_char(x_char, y_char);
    5ff0:	b5 01       	movw	r22, r10
    5ff2:	c4 01       	movw	r24, r8
    5ff4:	13 d2       	rcall	.+1062   	; 0x641c <joystick_move_char>
			if(move == 3){
    5ff6:	03 97       	sbiw	r24, 0x03	; 3
    5ff8:	39 f4       	brne	.+14     	; 0x6008 <fishing+0xa6>
				S_Pass();
    5ffa:	0d df       	rcall	.-486    	; 0x5e16 <S_Pass>
				suc++;
    5ffc:	2f ef       	ldi	r18, 0xFF	; 255
    5ffe:	c2 1a       	sub	r12, r18
				led_port(suc);
    6000:	d2 0a       	sbc	r13, r18
    6002:	c6 01       	movw	r24, r12
    6004:	b7 d2       	rcall	.+1390   	; 0x6574 <led_port>
    6006:	29 c0       	rjmp	.+82     	; 0x605a <fishing+0xf8>
			}else S_Fail();
    6008:	11 df       	rcall	.-478    	; 0x5e2c <S_Fail>
    600a:	27 c0       	rjmp	.+78     	; 0x605a <fishing+0xf8>
    600c:	88 0f       	add	r24, r24
		}else{
			glcd_draw_bitmap(Lsea[ran],0,0,64,128);
    600e:	99 1f       	adc	r25, r25
    6010:	fc 01       	movw	r30, r24
    6012:	ec 5d       	subi	r30, 0xDC	; 220
    6014:	fe 4f       	sbci	r31, 0xFE	; 254
    6016:	00 e8       	ldi	r16, 0x80	; 128
    6018:	20 e4       	ldi	r18, 0x40	; 64
    601a:	40 e0       	ldi	r20, 0x00	; 0
    601c:	60 e0       	ldi	r22, 0x00	; 0
    601e:	80 81       	ld	r24, Z
    6020:	91 81       	ldd	r25, Z+1	; 0x01
    6022:	41 d4       	rcall	.+2178   	; 0x68a6 <glcd_draw_bitmap>
			lcd_string(7,6," << Left!! << ");
    6024:	4d e5       	ldi	r20, 0x5D	; 93
    6026:	53 e0       	ldi	r21, 0x03	; 3
    6028:	66 e0       	ldi	r22, 0x06	; 6
    602a:	87 e0       	ldi	r24, 0x07	; 7
    602c:	84 d3       	rcall	.+1800   	; 0x6736 <lcd_string>
    602e:	8f ef       	ldi	r24, 0xFF	; 255
    6030:	99 e6       	ldi	r25, 0x69	; 105
    6032:	28 e1       	ldi	r18, 0x18	; 24
    6034:	81 50       	subi	r24, 0x01	; 1
    6036:	90 40       	sbci	r25, 0x00	; 0
    6038:	20 40       	sbci	r18, 0x00	; 0
    603a:	e1 f7       	brne	.-8      	; 0x6034 <fishing+0xd2>
    603c:	00 c0       	rjmp	.+0      	; 0x603e <fishing+0xdc>
    603e:	00 00       	nop
			_delay_ms(500);
			move = joystick_move_char(x_char, y_char);
    6040:	b5 01       	movw	r22, r10
    6042:	c4 01       	movw	r24, r8
			if(move == 2){
    6044:	eb d1       	rcall	.+982    	; 0x641c <joystick_move_char>
    6046:	02 97       	sbiw	r24, 0x02	; 2
				suc++;
    6048:	39 f4       	brne	.+14     	; 0x6058 <fishing+0xf6>
    604a:	8f ef       	ldi	r24, 0xFF	; 255
    604c:	c8 1a       	sub	r12, r24
				led_port(suc);
    604e:	d8 0a       	sbc	r13, r24
    6050:	c6 01       	movw	r24, r12
    6052:	90 d2       	rcall	.+1312   	; 0x6574 <led_port>
				S_Pass();
    6054:	e0 de       	rcall	.-576    	; 0x5e16 <S_Pass>
    6056:	01 c0       	rjmp	.+2      	; 0x605a <fishing+0xf8>
			}else S_Fail();			
    6058:	e9 de       	rcall	.-558    	; 0x5e2c <S_Fail>
    605a:	9f ef       	ldi	r25, 0xFF	; 255
    605c:	2d e3       	ldi	r18, 0x3D	; 61
    605e:	89 e4       	ldi	r24, 0x49	; 73
    6060:	91 50       	subi	r25, 0x01	; 1
    6062:	20 40       	sbci	r18, 0x00	; 0
    6064:	80 40       	sbci	r24, 0x00	; 0
    6066:	e1 f7       	brne	.-8      	; 0x6060 <fishing+0xfe>
    6068:	00 c0       	rjmp	.+0      	; 0x606a <fishing+0x108>
    606a:	00 00       	nop
    606c:	06 d3       	rcall	.+1548   	; 0x667a <lcd_clear>
		}
		_delay_ms(1500);
		lcd_clear();
    606e:	98 e0       	ldi	r25, 0x08	; 8
		cnt++;
		if(suc == 8) {
    6070:	c9 16       	cp	r12, r25
    6072:	d1 04       	cpc	r13, r1
    6074:	a9 f4       	brne	.+42     	; 0x60a0 <fishing+0x13e>
    6076:	81 e0       	ldi	r24, 0x01	; 1
			flag2=1;
    6078:	90 e0       	ldi	r25, 0x00	; 0
    607a:	90 93 1d 04 	sts	0x041D, r25	; 0x80041d <flag2+0x1>
    607e:	80 93 1c 04 	sts	0x041C, r24	; 0x80041c <flag2>
    6082:	4c e6       	ldi	r20, 0x6C	; 108
			lcd_string(7,6,"Success!!!!");
    6084:	53 e0       	ldi	r21, 0x03	; 3
    6086:	66 e0       	ldi	r22, 0x06	; 6
    6088:	87 e0       	ldi	r24, 0x07	; 7
    608a:	55 d3       	rcall	.+1706   	; 0x6736 <lcd_string>
    608c:	2f ef       	ldi	r18, 0xFF	; 255
    608e:	89 e6       	ldi	r24, 0x69	; 105
    6090:	98 e1       	ldi	r25, 0x18	; 24
    6092:	21 50       	subi	r18, 0x01	; 1
    6094:	80 40       	sbci	r24, 0x00	; 0
    6096:	90 40       	sbci	r25, 0x00	; 0
    6098:	e1 f7       	brne	.-8      	; 0x6092 <fishing+0x130>
    609a:	00 c0       	rjmp	.+0      	; 0x609c <fishing+0x13a>
    609c:	00 00       	nop
    609e:	0b c0       	rjmp	.+22     	; 0x60b6 <fishing+0x154>
    60a0:	80 91 1c 04 	lds	r24, 0x041C	; 0x80041c <flag2>
	int suc = 0;
	int cnt=0;
	int move;

	//10 
	while(flag2 == 0 && cnt <10){
    60a4:	90 91 1d 04 	lds	r25, 0x041D	; 0x80041d <flag2+0x1>
    60a8:	89 2b       	or	r24, r25
    60aa:	29 f4       	brne	.+10     	; 0x60b6 <fishing+0x154>
    60ac:	21 e0       	ldi	r18, 0x01	; 1
    60ae:	e2 1a       	sub	r14, r18
    60b0:	f1 08       	sbc	r15, r1
    60b2:	09 f0       	breq	.+2      	; 0x60b6 <fishing+0x154>
    60b4:	6e cf       	rjmp	.-292    	; 0x5f92 <fishing+0x30>
    60b6:	df 91       	pop	r29
    60b8:	cf 91       	pop	r28
			_delay_ms(500);
			break;
		}
	}
	
}
    60ba:	0f 91       	pop	r16
    60bc:	ff 90       	pop	r15
    60be:	ef 90       	pop	r14
    60c0:	df 90       	pop	r13
    60c2:	cf 90       	pop	r12
    60c4:	bf 90       	pop	r11
    60c6:	af 90       	pop	r10
    60c8:	9f 90       	pop	r9
    60ca:	8f 90       	pop	r8
    60cc:	08 95       	ret

000060ce <main>:
    60ce:	cf 93       	push	r28
    60d0:	df 93       	push	r29

//ISR
SIGNAL(INT0_vect) {	switch_flag =1;}

int main(void)
{
    60d2:	00 d0       	rcall	.+0      	; 0x60d4 <main+0x6>
    60d4:	00 d0       	rcall	.+0      	; 0x60d6 <main+0x8>
    60d6:	cd b7       	in	r28, 0x3d	; 61
    60d8:	de b7       	in	r29, 0x3e	; 62
	//
	int x_char,y_char;

	init_devices();
    60da:	3f d2       	rcall	.+1150   	; 0x655a <init_devices>
	Interrupt_init();
    60dc:	44 d2       	rcall	.+1160   	; 0x6566 <Interrupt_init>
	lcd_clear();
    60de:	cd d2       	rcall	.+1434   	; 0x667a <lcd_clear>
    60e0:	56 d3       	rcall	.+1708   	; 0x678e <ScreenBuffer_clear>
	ScreenBuffer_clear();
    60e2:	88 e2       	ldi	r24, 0x28	; 40
    60e4:	90 e0       	ldi	r25, 0x00	; 0

	x_char = 40;
    60e6:	9a 83       	std	Y+2, r25	; 0x02
    60e8:	89 83       	std	Y+1, r24	; 0x01
    60ea:	9c 83       	std	Y+4, r25	; 0x04
	y_char = 40;
    60ec:	8b 83       	std	Y+3, r24	; 0x03
    60ee:	e9 dc       	rcall	.-1582   	; 0x5ac2 <S_Start>

	while(1){ // 
		S_Start();
    60f0:	48 e7       	ldi	r20, 0x78	; 120
		lcd_string(7,0," ... wait ..");
    60f2:	53 e0       	ldi	r21, 0x03	; 3
    60f4:	60 e0       	ldi	r22, 0x00	; 0
    60f6:	87 e0       	ldi	r24, 0x07	; 7
    60f8:	1e d3       	rcall	.+1596   	; 0x6736 <lcd_string>
    60fa:	0f 2e       	mov	r0, r31
    60fc:	f4 e3       	ldi	r31, 0x34	; 52
    60fe:	cf 2e       	mov	r12, r31
    6100:	f1 e0       	ldi	r31, 0x01	; 1
    6102:	df 2e       	mov	r13, r31
    6104:	f0 2d       	mov	r31, r0
    6106:	ee 24       	eor	r14, r14
    6108:	e3 94       	inc	r14
    610a:	f1 2c       	mov	r15, r1
    610c:	03 c0       	rjmp	.+6      	; 0x6114 <main+0x46>
    610e:	2f ef       	ldi	r18, 0xFF	; 255
    6110:	e2 1a       	sub	r14, r18
    6112:	f2 0a       	sbc	r15, r18
    6114:	00 e8       	ldi	r16, 0x80	; 128
    6116:	20 e4       	ldi	r18, 0x40	; 64
		
		for(int i =0;i<6;i++){
			glcd_draw_bitmap(intro[i],0,0,64,128); //   
    6118:	40 e0       	ldi	r20, 0x00	; 0
    611a:	60 e0       	ldi	r22, 0x00	; 0
    611c:	f6 01       	movw	r30, r12
    611e:	81 91       	ld	r24, Z+
    6120:	91 91       	ld	r25, Z+
    6122:	6f 01       	movw	r12, r30
    6124:	c0 d3       	rcall	.+1920   	; 0x68a6 <glcd_draw_bitmap>
    6126:	45 e8       	ldi	r20, 0x85	; 133
			lcd_string(7,0,"PRESS START BUTTON 0");
    6128:	53 e0       	ldi	r21, 0x03	; 3
    612a:	60 e0       	ldi	r22, 0x00	; 0
    612c:	87 e0       	ldi	r24, 0x07	; 7
    612e:	03 d3       	rcall	.+1542   	; 0x6736 <lcd_string>
    6130:	f1 e0       	ldi	r31, 0x01	; 1
    6132:	ef 16       	cp	r14, r31
			if(i==0) {
    6134:	f1 04       	cpc	r15, r1
    6136:	51 f4       	brne	.+20     	; 0x614c <main+0x7e>
    6138:	2f ef       	ldi	r18, 0xFF	; 255
    613a:	81 ee       	ldi	r24, 0xE1	; 225
    613c:	94 e0       	ldi	r25, 0x04	; 4
    613e:	21 50       	subi	r18, 0x01	; 1
    6140:	80 40       	sbci	r24, 0x00	; 0
    6142:	90 40       	sbci	r25, 0x00	; 0
    6144:	e1 f7       	brne	.-8      	; 0x613e <main+0x70>
    6146:	00 c0       	rjmp	.+0      	; 0x6148 <main+0x7a>
    6148:	00 00       	nop
    614a:	e1 cf       	rjmp	.-62     	; 0x610e <main+0x40>
    614c:	ef ef       	ldi	r30, 0xFF	; 255
    614e:	f3 ed       	ldi	r31, 0xD3	; 211
    6150:	20 e3       	ldi	r18, 0x30	; 48
    6152:	e1 50       	subi	r30, 0x01	; 1
    6154:	f0 40       	sbci	r31, 0x00	; 0
    6156:	20 40       	sbci	r18, 0x00	; 0
    6158:	e1 f7       	brne	.-8      	; 0x6152 <main+0x84>
    615a:	00 c0       	rjmp	.+0      	; 0x615c <main+0x8e>
    615c:	00 00       	nop
    615e:	86 e0       	ldi	r24, 0x06	; 6
    6160:	e8 16       	cp	r14, r24

	while(1){ // 
		S_Start();
		lcd_string(7,0," ... wait ..");
		
		for(int i =0;i<6;i++){
    6162:	f1 04       	cpc	r15, r1
    6164:	a4 f2       	brlt	.-88     	; 0x610e <main+0x40>
    6166:	80 91 20 04 	lds	r24, 0x0420	; 0x800420 <switch_flag>
			}
			else {
				_delay_ms(1000);
			}
		}
		if(switch_flag){switch_flag=0;break;}
    616a:	90 91 21 04 	lds	r25, 0x0421	; 0x800421 <switch_flag+0x1>
    616e:	89 2b       	or	r24, r25
    6170:	09 f4       	brne	.+2      	; 0x6174 <main+0xa6>
    6172:	bd cf       	rjmp	.-134    	; 0x60ee <main+0x20>
    6174:	10 92 21 04 	sts	0x0421, r1	; 0x800421 <switch_flag+0x1>
    6178:	10 92 20 04 	sts	0x0420, r1	; 0x800420 <switch_flag>
    617c:	00 e8       	ldi	r16, 0x80	; 128
    617e:	20 e4       	ldi	r18, 0x40	; 64
	}
	// 
	glcd_draw_bitmap(field_map[0],0,0,64,128);
    6180:	40 e0       	ldi	r20, 0x00	; 0
    6182:	60 e0       	ldi	r22, 0x00	; 0
    6184:	80 91 42 01 	lds	r24, 0x0142	; 0x800142 <field_map>
    6188:	90 91 43 01 	lds	r25, 0x0143	; 0x800143 <field_map+0x1>
    618c:	8c d3       	rcall	.+1816   	; 0x68a6 <glcd_draw_bitmap>
    618e:	1f ef       	ldi	r17, 0xFF	; 255
    6190:	0f 2e       	mov	r0, r31
			if(ending_count == 8){
				PORTB = 0x00;
				break;
			}else{
				glcd_draw_bitmap(field_map[0],0,0,64,128);
				PORTB = 0xff;
    6192:	ff e0       	ldi	r31, 0x0F	; 15
				_delay_ms(1000);
				fishing(&x_char, &y_char);
				
				if(flag2 == 1){ //    
						lcd_clear();
						int n = rand() % 15; //0~14
    6194:	af 2e       	mov	r10, r31
    6196:	b1 2c       	mov	r11, r1
    6198:	f0 2d       	mov	r31, r0
    619a:	cc 24       	eor	r12, r12
						}else{
							//  
							glcd_draw_bitmap(Beyoung[n-6], 0,0,64,128);
							lcd_string(7,4, " Lucky!!!! ");
							
							check_fish[n]=1;
    619c:	c3 94       	inc	r12
    619e:	d1 2c       	mov	r13, r1
    61a0:	be 01       	movw	r22, r28
		if(switch_flag){switch_flag=0;break;}
	}
	// 
	glcd_draw_bitmap(field_map[0],0,0,64,128);
	while(1){
		glcd_char(&x_char,&y_char);
    61a2:	6d 5f       	subi	r22, 0xFD	; 253
    61a4:	7f 4f       	sbci	r23, 0xFF	; 255
    61a6:	ce 01       	movw	r24, r28
    61a8:	01 96       	adiw	r24, 0x01	; 1
    61aa:	b7 de       	rcall	.-658    	; 0x5f1a <glcd_char>
    61ac:	ef e3       	ldi	r30, 0x3F	; 63
    61ae:	fc e9       	ldi	r31, 0x9C	; 156
    61b0:	31 97       	sbiw	r30, 0x01	; 1
    61b2:	f1 f7       	brne	.-4      	; 0x61b0 <main+0xe2>
    61b4:	00 c0       	rjmp	.+0      	; 0x61b6 <main+0xe8>
    61b6:	00 00       	nop
    61b8:	80 91 20 04 	lds	r24, 0x0420	; 0x800420 <switch_flag>
		_delay_ms(10);
		if(switch_flag){
    61bc:	90 91 21 04 	lds	r25, 0x0421	; 0x800421 <switch_flag+0x1>
    61c0:	89 2b       	or	r24, r25
    61c2:	09 f4       	brne	.+2      	; 0x61c6 <main+0xf8>
    61c4:	ae c0       	rjmp	.+348    	; 0x6322 <main+0x254>
    61c6:	80 91 1e 04 	lds	r24, 0x041E	; 0x80041e <flag>
			flag = catching(flag); // 
    61ca:	90 91 1f 04 	lds	r25, 0x041F	; 0x80041f <flag+0x1>
    61ce:	39 de       	rcall	.-910    	; 0x5e42 <catching>
    61d0:	90 93 1f 04 	sts	0x041F, r25	; 0x80041f <flag+0x1>
    61d4:	80 93 1e 04 	sts	0x041E, r24	; 0x80041e <flag>
    61d8:	da d2       	rcall	.+1460   	; 0x678e <ScreenBuffer_clear>
			
			ScreenBuffer_clear();
    61da:	4f d2       	rcall	.+1182   	; 0x667a <lcd_clear>
    61dc:	80 91 1e 04 	lds	r24, 0x041E	; 0x80041e <flag>
			lcd_clear();
			
			if(flag == 1){ // 
    61e0:	90 91 1f 04 	lds	r25, 0x041F	; 0x80041f <flag+0x1>
    61e4:	01 97       	sbiw	r24, 0x01	; 1
    61e6:	09 f0       	breq	.+2      	; 0x61ea <main+0x11c>
    61e8:	7c c0       	rjmp	.+248    	; 0x62e2 <main+0x214>
    61ea:	18 bb       	out	0x18, r17	; 24
    61ec:	4a e9       	ldi	r20, 0x9A	; 154
				PORTB = 0xff;
    61ee:	53 e0       	ldi	r21, 0x03	; 3
				lcd_string(7,4,"fishing START");
    61f0:	64 e0       	ldi	r22, 0x04	; 4
    61f2:	87 e0       	ldi	r24, 0x07	; 7
    61f4:	a0 d2       	rcall	.+1344   	; 0x6736 <lcd_string>
    61f6:	ff ef       	ldi	r31, 0xFF	; 255
    61f8:	23 ed       	ldi	r18, 0xD3	; 211
    61fa:	80 e3       	ldi	r24, 0x30	; 48
    61fc:	f1 50       	subi	r31, 0x01	; 1
    61fe:	20 40       	sbci	r18, 0x00	; 0
    6200:	80 40       	sbci	r24, 0x00	; 0
    6202:	e1 f7       	brne	.-8      	; 0x61fc <main+0x12e>
    6204:	00 c0       	rjmp	.+0      	; 0x6206 <main+0x138>
    6206:	00 00       	nop
    6208:	be 01       	movw	r22, r28
    620a:	6d 5f       	subi	r22, 0xFD	; 253
				_delay_ms(1000);
				fishing(&x_char, &y_char);
    620c:	7f 4f       	sbci	r23, 0xFF	; 255
    620e:	ce 01       	movw	r24, r28
    6210:	01 96       	adiw	r24, 0x01	; 1
    6212:	a7 de       	rcall	.-690    	; 0x5f62 <fishing>
    6214:	80 91 1c 04 	lds	r24, 0x041C	; 0x80041c <flag2>
				
				if(flag2 == 1){ //    
    6218:	90 91 1d 04 	lds	r25, 0x041D	; 0x80041d <flag2+0x1>
    621c:	01 97       	sbiw	r24, 0x01	; 1
    621e:	09 f0       	breq	.+2      	; 0x6222 <main+0x154>
    6220:	65 c0       	rjmp	.+202    	; 0x62ec <main+0x21e>
						lcd_clear();
    6222:	2b d2       	rcall	.+1110   	; 0x667a <lcd_clear>
						int n = rand() % 15; //0~14
    6224:	35 d4       	rcall	.+2154   	; 0x6a90 <rand>
    6226:	b5 01       	movw	r22, r10
    6228:	ca d3       	rcall	.+1940   	; 0x69be <__divmodhi4>
    622a:	7c 01       	movw	r14, r24
    622c:	88 0f       	add	r24, r24
    622e:	99 1f       	adc	r25, r25
						
						while(check_fish[n] == 1){ //     
    6230:	fc 01       	movw	r30, r24
    6232:	e4 50       	subi	r30, 0x04	; 4
    6234:	fc 4f       	sbci	r31, 0xFC	; 252
    6236:	80 81       	ld	r24, Z
    6238:	91 81       	ldd	r25, Z+1	; 0x01
    623a:	01 97       	sbiw	r24, 0x01	; 1
    623c:	69 f4       	brne	.+26     	; 0x6258 <main+0x18a>
    623e:	28 d4       	rcall	.+2128   	; 0x6a90 <rand>
    6240:	b5 01       	movw	r22, r10
							n = rand() % 15;
    6242:	bd d3       	rcall	.+1914   	; 0x69be <__divmodhi4>
    6244:	7c 01       	movw	r14, r24
    6246:	88 0f       	add	r24, r24
    6248:	99 1f       	adc	r25, r25
    624a:	fc 01       	movw	r30, r24
    624c:	e4 50       	subi	r30, 0x04	; 4
				
				if(flag2 == 1){ //    
						lcd_clear();
						int n = rand() % 15; //0~14
						
						while(check_fish[n] == 1){ //     
    624e:	fc 4f       	sbci	r31, 0xFC	; 252
    6250:	80 81       	ld	r24, Z
    6252:	91 81       	ldd	r25, Z+1	; 0x01
    6254:	01 97       	sbiw	r24, 0x01	; 1
    6256:	99 f3       	breq	.-26     	; 0x623e <main+0x170>
    6258:	96 e0       	ldi	r25, 0x06	; 6
    625a:	e9 16       	cp	r14, r25
    625c:	f1 04       	cpc	r15, r1
							n = rand() % 15;
						}
						
						if(n<6){
    625e:	ac f4       	brge	.+42     	; 0x628a <main+0x1bc>
    6260:	ee 0c       	add	r14, r14
    6262:	ff 1c       	adc	r15, r15
							//0~5 
							glcd_draw_bitmap(fish_char[n], 0,40,56,56);
    6264:	f7 01       	movw	r30, r14
    6266:	e8 5d       	subi	r30, 0xD8	; 216
    6268:	fe 4f       	sbci	r31, 0xFE	; 254
    626a:	08 e3       	ldi	r16, 0x38	; 56
    626c:	28 e3       	ldi	r18, 0x38	; 56
    626e:	48 e2       	ldi	r20, 0x28	; 40
    6270:	60 e0       	ldi	r22, 0x00	; 0
    6272:	80 81       	ld	r24, Z
    6274:	91 81       	ldd	r25, Z+1	; 0x01
    6276:	17 d3       	rcall	.+1582   	; 0x68a6 <glcd_draw_bitmap>
    6278:	f7 01       	movw	r30, r14
    627a:	ec 5f       	subi	r30, 0xFC	; 252
							lcd_string(7,6, fish_name[n]);
    627c:	fe 4f       	sbci	r31, 0xFE	; 254
    627e:	40 81       	ld	r20, Z
    6280:	51 81       	ldd	r21, Z+1	; 0x01
    6282:	66 e0       	ldi	r22, 0x06	; 6
    6284:	87 e0       	ldi	r24, 0x07	; 7
    6286:	57 d2       	rcall	.+1198   	; 0x6736 <lcd_string>
    6288:	21 c0       	rjmp	.+66     	; 0x62cc <main+0x1fe>
    628a:	f7 01       	movw	r30, r14
    628c:	ee 0f       	add	r30, r30

						}else{
							//  
							glcd_draw_bitmap(Beyoung[n-6], 0,0,64,128);
    628e:	ff 1f       	adc	r31, r31
    6290:	ec 5f       	subi	r30, 0xFC	; 252
    6292:	fe 4f       	sbci	r31, 0xFE	; 254
    6294:	00 e8       	ldi	r16, 0x80	; 128
    6296:	20 e4       	ldi	r18, 0x40	; 64
    6298:	40 e0       	ldi	r20, 0x00	; 0
    629a:	60 e0       	ldi	r22, 0x00	; 0
    629c:	80 81       	ld	r24, Z
    629e:	91 81       	ldd	r25, Z+1	; 0x01
    62a0:	02 d3       	rcall	.+1540   	; 0x68a6 <glcd_draw_bitmap>
    62a2:	48 ea       	ldi	r20, 0xA8	; 168
    62a4:	53 e0       	ldi	r21, 0x03	; 3
    62a6:	64 e0       	ldi	r22, 0x04	; 4
							lcd_string(7,4, " Lucky!!!! ");
    62a8:	87 e0       	ldi	r24, 0x07	; 7
    62aa:	45 d2       	rcall	.+1162   	; 0x6736 <lcd_string>
    62ac:	f7 01       	movw	r30, r14
    62ae:	ee 0f       	add	r30, r30
    62b0:	ff 1f       	adc	r31, r31
    62b2:	e4 50       	subi	r30, 0x04	; 4
							
							check_fish[n]=1;
    62b4:	fc 4f       	sbci	r31, 0xFC	; 252
    62b6:	d1 82       	std	Z+1, r13	; 0x01
    62b8:	c0 82       	st	Z, r12
    62ba:	80 91 18 04 	lds	r24, 0x0418	; 0x800418 <ending_count>
    62be:	90 91 19 04 	lds	r25, 0x0419	; 0x800419 <ending_count+0x1>
							ending_count++;
    62c2:	01 96       	adiw	r24, 0x01	; 1
    62c4:	90 93 19 04 	sts	0x0419, r25	; 0x800419 <ending_count+0x1>
    62c8:	80 93 18 04 	sts	0x0418, r24	; 0x800418 <ending_count>
    62cc:	ef ef       	ldi	r30, 0xFF	; 255
    62ce:	f1 e1       	ldi	r31, 0x11	; 17
    62d0:	2a e7       	ldi	r18, 0x7A	; 122
    62d2:	e1 50       	subi	r30, 0x01	; 1
    62d4:	f0 40       	sbci	r31, 0x00	; 0
    62d6:	20 40       	sbci	r18, 0x00	; 0
    62d8:	e1 f7       	brne	.-8      	; 0x62d2 <main+0x204>
    62da:	00 c0       	rjmp	.+0      	; 0x62dc <main+0x20e>
    62dc:	00 00       	nop
    62de:	cd d1       	rcall	.+922    	; 0x667a <lcd_clear>
							
						}
						_delay_ms(2500);
						lcd_clear();
    62e0:	05 c0       	rjmp	.+10     	; 0x62ec <main+0x21e>
    62e2:	44 eb       	ldi	r20, 0xB4	; 180
    62e4:	53 e0       	ldi	r21, 0x03	; 3
						
						
					}
			}else{
				lcd_string(7,4,"FAIL");
    62e6:	64 e0       	ldi	r22, 0x04	; 4
    62e8:	87 e0       	ldi	r24, 0x07	; 7
    62ea:	25 d2       	rcall	.+1098   	; 0x6736 <lcd_string>
    62ec:	80 91 18 04 	lds	r24, 0x0418	; 0x800418 <ending_count>
			}
			
			if(ending_count == 8){
    62f0:	90 91 19 04 	lds	r25, 0x0419	; 0x800419 <ending_count+0x1>
    62f4:	08 97       	sbiw	r24, 0x08	; 8
    62f6:	11 f4       	brne	.+4      	; 0x62fc <main+0x22e>
    62f8:	18 ba       	out	0x18, r1	; 24
    62fa:	1a c0       	rjmp	.+52     	; 0x6330 <main+0x262>
				PORTB = 0x00;
    62fc:	00 e8       	ldi	r16, 0x80	; 128
				break;
    62fe:	20 e4       	ldi	r18, 0x40	; 64
			}else{
				glcd_draw_bitmap(field_map[0],0,0,64,128);
    6300:	40 e0       	ldi	r20, 0x00	; 0
    6302:	60 e0       	ldi	r22, 0x00	; 0
    6304:	80 91 42 01 	lds	r24, 0x0142	; 0x800142 <field_map>
    6308:	90 91 43 01 	lds	r25, 0x0143	; 0x800143 <field_map+0x1>
    630c:	cc d2       	rcall	.+1432   	; 0x68a6 <glcd_draw_bitmap>
    630e:	18 bb       	out	0x18, r17	; 24
    6310:	80 91 18 04 	lds	r24, 0x0418	; 0x800418 <ending_count>
				PORTB = 0xff;
				led_port(ending_count); //      
    6314:	90 91 19 04 	lds	r25, 0x0419	; 0x800419 <ending_count+0x1>
    6318:	2d d1       	rcall	.+602    	; 0x6574 <led_port>
    631a:	10 92 21 04 	sts	0x0421, r1	; 0x800421 <switch_flag+0x1>
				switch_flag=0;
    631e:	10 92 20 04 	sts	0x0420, r1	; 0x800420 <switch_flag>
			}

		}
		
		if(ending_count == 8){
    6322:	80 91 18 04 	lds	r24, 0x0418	; 0x800418 <ending_count>
    6326:	90 91 19 04 	lds	r25, 0x0419	; 0x800419 <ending_count+0x1>
    632a:	08 97       	sbiw	r24, 0x08	; 8
    632c:	09 f0       	breq	.+2      	; 0x6330 <main+0x262>
    632e:	38 cf       	rjmp	.-400    	; 0x61a0 <main+0xd2>
			break;
		}
	}
	lcd_clear();
    6330:	a4 d1       	rcall	.+840    	; 0x667a <lcd_clear>
    6332:	00 e8       	ldi	r16, 0x80	; 128
	glcd_draw_bitmap(intro[6],0,0,64,128);
    6334:	20 e4       	ldi	r18, 0x40	; 64
    6336:	40 e0       	ldi	r20, 0x00	; 0
    6338:	60 e0       	ldi	r22, 0x00	; 0
    633a:	80 91 40 01 	lds	r24, 0x0140	; 0x800140 <intro+0xc>
    633e:	90 91 41 01 	lds	r25, 0x0141	; 0x800141 <intro+0xd>
    6342:	b1 d2       	rcall	.+1378   	; 0x68a6 <glcd_draw_bitmap>
    6344:	49 eb       	ldi	r20, 0xB9	; 185
    6346:	53 e0       	ldi	r21, 0x03	; 3
	lcd_string(7,0,"happy ending");
    6348:	60 e0       	ldi	r22, 0x00	; 0
    634a:	87 e0       	ldi	r24, 0x07	; 7
    634c:	f4 d1       	rcall	.+1000   	; 0x6736 <lcd_string>
    634e:	c9 dc       	rcall	.-1646   	; 0x5ce2 <S_Ending>
    6350:	00 e0       	ldi	r16, 0x00	; 0
    6352:	10 e0       	ldi	r17, 0x00	; 0
	while(1){
			S_Ending();
    6354:	c8 01       	movw	r24, r16
    6356:	0e d1       	rcall	.+540    	; 0x6574 <led_port>
			for(int j=0; j<9;j++){
    6358:	8f ef       	ldi	r24, 0xFF	; 255
    635a:	99 e6       	ldi	r25, 0x69	; 105
				led_port(j);
    635c:	e8 e1       	ldi	r30, 0x18	; 24
    635e:	81 50       	subi	r24, 0x01	; 1
    6360:	90 40       	sbci	r25, 0x00	; 0
    6362:	e0 40       	sbci	r30, 0x00	; 0
    6364:	e1 f7       	brne	.-8      	; 0x635e <main+0x290>
    6366:	00 c0       	rjmp	.+0      	; 0x6368 <main+0x29a>
    6368:	00 00       	nop
    636a:	0f 5f       	subi	r16, 0xFF	; 255
    636c:	1f 4f       	sbci	r17, 0xFF	; 255
    636e:	09 30       	cpi	r16, 0x09	; 9
    6370:	11 05       	cpc	r17, r1
    6372:	81 f7       	brne	.-32     	; 0x6354 <main+0x286>
	lcd_clear();
	glcd_draw_bitmap(intro[6],0,0,64,128);
	lcd_string(7,0,"happy ending");
	while(1){
			S_Ending();
			for(int j=0; j<9;j++){
    6374:	ec cf       	rjmp	.-40     	; 0x634e <main+0x280>

00006376 <Read_Adc_Data>:
    6376:	93 ec       	ldi	r25, 0xC3	; 195
    6378:	96 b9       	out	0x06, r25	; 6
    637a:	80 64       	ori	r24, 0x40	; 64
    637c:	87 b9       	out	0x07, r24	; 7
    637e:	36 9a       	sbi	0x06, 6	; 6
		 lcd_xy(7,14); GLCD_1DigitDecimal(Decimal[2],1);		//100 
		 lcd_xy(7,15); GLCD_1DigitDecimal(Decimal[1],1);		//10 
		 lcd_xy(7,16); GLCD_1DigitDecimal(Decimal[0],1);		//1 
		 lcd_xy(7,11); GLCD_1DigitDecimal(Decimal[4],1);		//10000 
	 }
 }
    6380:	34 9b       	sbis	0x06, 4	; 6
    6382:	fe cf       	rjmp	.-4      	; 0x6380 <Read_Adc_Data+0xa>
    6384:	24 b1       	in	r18, 0x04	; 4
    6386:	85 b1       	in	r24, 0x05	; 5
    6388:	16 b8       	out	0x06, r1	; 6
    638a:	90 e0       	ldi	r25, 0x00	; 0
    638c:	98 2f       	mov	r25, r24
    638e:	88 27       	eor	r24, r24
    6390:	82 0f       	add	r24, r18
    6392:	91 1d       	adc	r25, r1
    6394:	08 95       	ret

00006396 <acc>:

 void acc(int *x,int *y,int *z){
    6396:	ef 92       	push	r14
    6398:	ff 92       	push	r15
    639a:	0f 93       	push	r16
    639c:	1f 93       	push	r17
    639e:	cf 93       	push	r28
    63a0:	df 93       	push	r29
    63a2:	7c 01       	movw	r14, r24
    63a4:	8b 01       	movw	r16, r22
    63a6:	ea 01       	movw	r28, r20
	 
		 Data_ADC5 = Read_Adc_Data(5)-352+32;		//  5  
    63a8:	85 e0       	ldi	r24, 0x05	; 5
    63aa:	e5 df       	rcall	.-54     	; 0x6376 <Read_Adc_Data>
    63ac:	80 54       	subi	r24, 0x40	; 64
    63ae:	91 40       	sbci	r25, 0x01	; 1
    63b0:	90 93 27 04 	sts	0x0427, r25	; 0x800427 <Data_ADC5+0x1>
    63b4:	80 93 26 04 	sts	0x0426, r24	; 0x800426 <Data_ADC5>
		 Data_ADC6 = Read_Adc_Data(6)-358+62;		//  6  
    63b8:	86 e0       	ldi	r24, 0x06	; 6
    63ba:	dd df       	rcall	.-70     	; 0x6376 <Read_Adc_Data>
    63bc:	88 52       	subi	r24, 0x28	; 40
    63be:	91 40       	sbci	r25, 0x01	; 1
    63c0:	90 93 25 04 	sts	0x0425, r25	; 0x800425 <Data_ADC6+0x1>
    63c4:	80 93 24 04 	sts	0x0424, r24	; 0x800424 <Data_ADC6>
		 Data_ADC7 = Read_Adc_Data(7);				//  7  
    63c8:	87 e0       	ldi	r24, 0x07	; 7
    63ca:	d5 df       	rcall	.-86     	; 0x6376 <Read_Adc_Data>
    63cc:	90 93 23 04 	sts	0x0423, r25	; 0x800423 <Data_ADC7+0x1>
    63d0:	80 93 22 04 	sts	0x0422, r24	; 0x800422 <Data_ADC7>
    63d4:	2f ef       	ldi	r18, 0xFF	; 255
    63d6:	89 e6       	ldi	r24, 0x69	; 105
    63d8:	98 e1       	ldi	r25, 0x18	; 24
    63da:	21 50       	subi	r18, 0x01	; 1
    63dc:	80 40       	sbci	r24, 0x00	; 0
    63de:	90 40       	sbci	r25, 0x00	; 0
    63e0:	e1 f7       	brne	.-8      	; 0x63da <acc+0x44>
    63e2:	00 c0       	rjmp	.+0      	; 0x63e4 <acc+0x4e>
    63e4:	00 00       	nop
    63e6:	80 91 26 04 	lds	r24, 0x0426	; 0x800426 <Data_ADC5>
 
		 _delay_ms(500);
 
		*x=Data_ADC5;
    63ea:	90 91 27 04 	lds	r25, 0x0427	; 0x800427 <Data_ADC5+0x1>
    63ee:	f7 01       	movw	r30, r14
    63f0:	91 83       	std	Z+1, r25	; 0x01
    63f2:	80 83       	st	Z, r24
    63f4:	80 91 24 04 	lds	r24, 0x0424	; 0x800424 <Data_ADC6>
		*y=Data_ADC6;
    63f8:	90 91 25 04 	lds	r25, 0x0425	; 0x800425 <Data_ADC6+0x1>
    63fc:	f8 01       	movw	r30, r16
    63fe:	91 83       	std	Z+1, r25	; 0x01
    6400:	80 83       	st	Z, r24
    6402:	80 91 22 04 	lds	r24, 0x0422	; 0x800422 <Data_ADC7>
		*z=Data_ADC7;
    6406:	90 91 23 04 	lds	r25, 0x0423	; 0x800423 <Data_ADC7+0x1>
    640a:	99 83       	std	Y+1, r25	; 0x01
    640c:	88 83       	st	Y, r24
    640e:	df 91       	pop	r29

}
    6410:	cf 91       	pop	r28
    6412:	1f 91       	pop	r17
    6414:	0f 91       	pop	r16
    6416:	ff 90       	pop	r15
    6418:	ef 90       	pop	r14
    641a:	08 95       	ret

0000641c <joystick_move_char>:
    641c:	cf 92       	push	r12

 int joystick_move_char(int *x_char,int *y_char){
    641e:	df 92       	push	r13
    6420:	ef 92       	push	r14
    6422:	ff 92       	push	r15
    6424:	0f 93       	push	r16
    6426:	1f 93       	push	r17
    6428:	cf 93       	push	r28
    642a:	df 93       	push	r29
    642c:	ec 01       	movw	r28, r24
    642e:	7b 01       	movw	r14, r22

	 int flag, xtmp, ytmp;
	 flag = -1;
	 xtmp =*x_char;
    6430:	08 81       	ld	r16, Y
    6432:	19 81       	ldd	r17, Y+1	; 0x01
	 ytmp =*y_char;
    6434:	fb 01       	movw	r30, r22
    6436:	c0 80       	ld	r12, Z
    6438:	d1 80       	ldd	r13, Z+1	; 0x01
	 Data_ADC3 = Read_Adc_Data(3) / 14;	//3 
    643a:	83 e0       	ldi	r24, 0x03	; 3
    643c:	9c df       	rcall	.-200    	; 0x6376 <Read_Adc_Data>
    643e:	9c 01       	movw	r18, r24
    6440:	36 95       	lsr	r19
    6442:	27 95       	ror	r18
    6444:	a5 e2       	ldi	r26, 0x25	; 37
    6446:	b9 e4       	ldi	r27, 0x49	; 73
    6448:	cd d2       	rcall	.+1434   	; 0x69e4 <__umulhisi3>
    644a:	96 95       	lsr	r25
    644c:	87 95       	ror	r24
    644e:	90 93 29 04 	sts	0x0429, r25	; 0x800429 <Data_ADC3+0x1>
    6452:	80 93 28 04 	sts	0x0428, r24	; 0x800428 <Data_ADC3>
	 Data_ADC4 = Read_Adc_Data(4) / 8;	//4  
    6456:	84 e0       	ldi	r24, 0x04	; 4
    6458:	8e df       	rcall	.-228    	; 0x6376 <Read_Adc_Data>
    645a:	96 95       	lsr	r25
    645c:	87 95       	ror	r24
    645e:	96 95       	lsr	r25
    6460:	87 95       	ror	r24
    6462:	96 95       	lsr	r25
    6464:	87 95       	ror	r24
    6466:	90 93 4d 01 	sts	0x014D, r25	; 0x80014d <Data_ADC4+0x1>
    646a:	80 93 4c 01 	sts	0x014C, r24	; 0x80014c <Data_ADC4>
    646e:	ff ef       	ldi	r31, 0xFF	; 255
    6470:	26 e7       	ldi	r18, 0x76	; 118
    6472:	81 e0       	ldi	r24, 0x01	; 1
    6474:	f1 50       	subi	r31, 0x01	; 1
    6476:	20 40       	sbci	r18, 0x00	; 0
    6478:	80 40       	sbci	r24, 0x00	; 0
    647a:	e1 f7       	brne	.-8      	; 0x6474 <joystick_move_char+0x58>
    647c:	00 c0       	rjmp	.+0      	; 0x647e <joystick_move_char+0x62>
    647e:	00 00       	nop
    6480:	80 91 28 04 	lds	r24, 0x0428	; 0x800428 <Data_ADC3>
	 _delay_ms(30);
	 
	 if(Data_ADC3 < 20){	//Up
    6484:	90 91 29 04 	lds	r25, 0x0429	; 0x800429 <Data_ADC3+0x1>
    6488:	84 31       	cpi	r24, 0x14	; 20
    648a:	91 05       	cpc	r25, r1
    648c:	68 f4       	brcc	.+26     	; 0x64a8 <joystick_move_char+0x8c>
    648e:	ef e3       	ldi	r30, 0x3F	; 63
    6490:	fc e9       	ldi	r31, 0x9C	; 156
    6492:	31 97       	sbiw	r30, 0x01	; 1
    6494:	f1 f7       	brne	.-4      	; 0x6492 <joystick_move_char+0x76>
    6496:	00 c0       	rjmp	.+0      	; 0x6498 <joystick_move_char+0x7c>
    6498:	00 00       	nop
    649a:	01 50       	subi	r16, 0x01	; 1
	 else if(Data_ADC4 < 20){	//Right
		 flag=3;
		 _delay_ms(10);
	}
	switch(flag){
	case 0:*x_char =xtmp-1;return 0;break;
    649c:	11 09       	sbc	r17, r1
    649e:	19 83       	std	Y+1, r17	; 0x01
    64a0:	08 83       	st	Y, r16
    64a2:	80 e0       	ldi	r24, 0x00	; 0
    64a4:	90 e0       	ldi	r25, 0x00	; 0
    64a6:	38 c0       	rjmp	.+112    	; 0x6518 <joystick_move_char+0xfc>
    64a8:	c3 97       	sbiw	r24, 0x33	; 51
	 
	 if(Data_ADC3 < 20){	//Up
		 flag =0;
		 _delay_ms(10);
	 }
	 else if(Data_ADC3 > 50){	//Down
    64aa:	68 f0       	brcs	.+26     	; 0x64c6 <joystick_move_char+0xaa>
    64ac:	8f e3       	ldi	r24, 0x3F	; 63
    64ae:	9c e9       	ldi	r25, 0x9C	; 156
    64b0:	01 97       	sbiw	r24, 0x01	; 1
    64b2:	f1 f7       	brne	.-4      	; 0x64b0 <joystick_move_char+0x94>
    64b4:	00 c0       	rjmp	.+0      	; 0x64b6 <joystick_move_char+0x9a>
    64b6:	00 00       	nop
    64b8:	0f 5f       	subi	r16, 0xFF	; 255
		 flag=3;
		 _delay_ms(10);
	}
	switch(flag){
	case 0:*x_char =xtmp-1;return 0;break;
	case 1:*x_char =xtmp+1;return 1;break;
    64ba:	1f 4f       	sbci	r17, 0xFF	; 255
    64bc:	19 83       	std	Y+1, r17	; 0x01
    64be:	08 83       	st	Y, r16
    64c0:	81 e0       	ldi	r24, 0x01	; 1
    64c2:	90 e0       	ldi	r25, 0x00	; 0
    64c4:	29 c0       	rjmp	.+82     	; 0x6518 <joystick_move_char+0xfc>
    64c6:	80 91 4c 01 	lds	r24, 0x014C	; 0x80014c <Data_ADC4>
		 _delay_ms(10);
	 }
	 else if(Data_ADC3 > 50){	//Down
		flag =1;
		 _delay_ms(10);
		 }else if(Data_ADC4 > 90){	//Left
    64ca:	90 91 4d 01 	lds	r25, 0x014D	; 0x80014d <Data_ADC4+0x1>
    64ce:	8b 35       	cpi	r24, 0x5B	; 91
    64d0:	91 05       	cpc	r25, r1
    64d2:	78 f0       	brcs	.+30     	; 0x64f2 <joystick_move_char+0xd6>
    64d4:	ef e3       	ldi	r30, 0x3F	; 63
    64d6:	fc e9       	ldi	r31, 0x9C	; 156
    64d8:	31 97       	sbiw	r30, 0x01	; 1
    64da:	f1 f7       	brne	.-4      	; 0x64d8 <joystick_move_char+0xbc>
    64dc:	00 c0       	rjmp	.+0      	; 0x64de <joystick_move_char+0xc2>
    64de:	00 00       	nop
    64e0:	f1 e0       	ldi	r31, 0x01	; 1
		 _delay_ms(10);
	}
	switch(flag){
	case 0:*x_char =xtmp-1;return 0;break;
	case 1:*x_char =xtmp+1;return 1;break;
	case 2:*y_char =ytmp-1;return 2;break;
    64e2:	cf 1a       	sub	r12, r31
    64e4:	d1 08       	sbc	r13, r1
    64e6:	f7 01       	movw	r30, r14
    64e8:	d1 82       	std	Z+1, r13	; 0x01
    64ea:	c0 82       	st	Z, r12
    64ec:	82 e0       	ldi	r24, 0x02	; 2
    64ee:	90 e0       	ldi	r25, 0x00	; 0
    64f0:	13 c0       	rjmp	.+38     	; 0x6518 <joystick_move_char+0xfc>
    64f2:	44 97       	sbiw	r24, 0x14	; 20
		 _delay_ms(10);
		 }else if(Data_ADC4 > 90){	//Left
		flag =2;	 
		 _delay_ms(10);
	 }
	 else if(Data_ADC4 < 20){	//Right
    64f4:	78 f4       	brcc	.+30     	; 0x6514 <joystick_move_char+0xf8>
    64f6:	8f e3       	ldi	r24, 0x3F	; 63
    64f8:	9c e9       	ldi	r25, 0x9C	; 156
    64fa:	01 97       	sbiw	r24, 0x01	; 1
    64fc:	f1 f7       	brne	.-4      	; 0x64fa <joystick_move_char+0xde>
    64fe:	00 c0       	rjmp	.+0      	; 0x6500 <joystick_move_char+0xe4>
    6500:	00 00       	nop
    6502:	9f ef       	ldi	r25, 0xFF	; 255
	}
	switch(flag){
	case 0:*x_char =xtmp-1;return 0;break;
	case 1:*x_char =xtmp+1;return 1;break;
	case 2:*y_char =ytmp-1;return 2;break;
	case 3:*y_char =ytmp+1;return 3;break;
    6504:	c9 1a       	sub	r12, r25
    6506:	d9 0a       	sbc	r13, r25
    6508:	f7 01       	movw	r30, r14
    650a:	d1 82       	std	Z+1, r13	; 0x01
    650c:	c0 82       	st	Z, r12
    650e:	83 e0       	ldi	r24, 0x03	; 3
    6510:	90 e0       	ldi	r25, 0x00	; 0
    6512:	02 c0       	rjmp	.+4      	; 0x6518 <joystick_move_char+0xfc>
    6514:	80 e0       	ldi	r24, 0x00	; 0
	default:return 0;break;
    6516:	90 e0       	ldi	r25, 0x00	; 0
    6518:	df 91       	pop	r29
	}
 }
    651a:	cf 91       	pop	r28
    651c:	1f 91       	pop	r17
    651e:	0f 91       	pop	r16
    6520:	ff 90       	pop	r15
    6522:	ef 90       	pop	r14
    6524:	df 90       	pop	r13
    6526:	cf 90       	pop	r12
    6528:	08 95       	ret

0000652a <Port_init>:
    652a:	1b ba       	out	0x1b, r1	; 27
 
 void Port_init(void){
	 PORTA=0x00; DDRA=0xff;
    652c:	8f ef       	ldi	r24, 0xFF	; 255
    652e:	8a bb       	out	0x1a, r24	; 26
	 PORTB=0xff; DDRB=0xff;
    6530:	88 bb       	out	0x18, r24	; 24
    6532:	87 bb       	out	0x17, r24	; 23
	 PORTC=0x00; DDRC=0xf0;
    6534:	15 ba       	out	0x15, r1	; 21
    6536:	90 ef       	ldi	r25, 0xF0	; 240
    6538:	94 bb       	out	0x14, r25	; 20
	 PORTD=0xff; DDRD=0x00;
    653a:	82 bb       	out	0x12, r24	; 18
    653c:	11 ba       	out	0x11, r1	; 17
	 PORTE=0x00; DDRE=0xff;
    653e:	13 b8       	out	0x03, r1	; 3
    6540:	82 b9       	out	0x02, r24	; 2
	 PORTF=0x00; DDRF=0x00;
    6542:	10 92 62 00 	sts	0x0062, r1	; 0x800062 <__TEXT_REGION_LENGTH__+0x7e0062>
    6546:	10 92 61 00 	sts	0x0061, r1	; 0x800061 <__TEXT_REGION_LENGTH__+0x7e0061>
    654a:	08 95       	ret

0000654c <ADC_init>:
 }
 
 void ADC_init(){
	 ADCSRA = 0x00; 
    654c:	16 b8       	out	0x06, r1	; 6
	 ADMUX = 0x00;	
    654e:	17 b8       	out	0x07, r1	; 7
	 ACSR = 0x80;
    6550:	80 e8       	ldi	r24, 0x80	; 128
    6552:	88 b9       	out	0x08, r24	; 8
	 ADCSRA = 0xC3;
    6554:	83 ec       	ldi	r24, 0xC3	; 195
    6556:	86 b9       	out	0x06, r24	; 6
    6558:	08 95       	ret

0000655a <init_devices>:
 }

 void init_devices(void){
	 cli();
    655a:	f8 94       	cli
	 Port_init();
    655c:	e6 df       	rcall	.-52     	; 0x652a <Port_init>
	 ADC_init();
    655e:	f6 df       	rcall	.-20     	; 0x654c <ADC_init>
	 lcd_init();
    6560:	9e d0       	rcall	.+316    	; 0x669e <lcd_init>
    6562:	78 94       	sei
	 sei();
    6564:	08 95       	ret

00006566 <Interrupt_init>:
    6566:	8f ef       	ldi	r24, 0xFF	; 255
 }

 void Interrupt_init(void) {
	 EICRA = 0xFF;
    6568:	80 93 6a 00 	sts	0x006A, r24	; 0x80006a <__TEXT_REGION_LENGTH__+0x7e006a>
	 EIMSK = 0x0F;	//INT0~3 
    656c:	8f e0       	ldi	r24, 0x0F	; 15
    656e:	89 bf       	out	0x39, r24	; 57
	 DDRD = 0x00;
    6570:	11 ba       	out	0x11, r1	; 17
    6572:	08 95       	ret

00006574 <led_port>:
}

 void led_port(int i){
    6574:	cf 93       	push	r28
    6576:	df 93       	push	r29
    6578:	cd b7       	in	r28, 0x3d	; 61
    657a:	de b7       	in	r29, 0x3e	; 62
    657c:	62 97       	sbiw	r28, 0x12	; 18
    657e:	0f b6       	in	r0, 0x3f	; 63
    6580:	f8 94       	cli
    6582:	de bf       	out	0x3e, r29	; 62
    6584:	0f be       	out	0x3f, r0	; 63
    6586:	cd bf       	out	0x3d, r28	; 61
	int option[]={0x00, 0x01, 0x03, 0x07, 0x0f, 0x1f, 0x3f, 0x7f, 0xff};
    6588:	22 e1       	ldi	r18, 0x12	; 18
    658a:	e9 e2       	ldi	r30, 0x29	; 41
    658c:	f3 e0       	ldi	r31, 0x03	; 3
    658e:	de 01       	movw	r26, r28
    6590:	11 96       	adiw	r26, 0x01	; 1
    6592:	01 90       	ld	r0, Z+
    6594:	0d 92       	st	X+, r0
    6596:	2a 95       	dec	r18
    6598:	e1 f7       	brne	.-8      	; 0x6592 <led_port+0x1e>
	PORTB &=~option[i];
    659a:	28 b3       	in	r18, 0x18	; 24
    659c:	88 0f       	add	r24, r24
    659e:	99 1f       	adc	r25, r25
    65a0:	e1 e0       	ldi	r30, 0x01	; 1
    65a2:	f0 e0       	ldi	r31, 0x00	; 0
    65a4:	ec 0f       	add	r30, r28
    65a6:	fd 1f       	adc	r31, r29
    65a8:	e8 0f       	add	r30, r24
    65aa:	f9 1f       	adc	r31, r25
    65ac:	80 81       	ld	r24, Z
    65ae:	80 95       	com	r24
    65b0:	28 23       	and	r18, r24
    65b2:	28 bb       	out	0x18, r18	; 24
}
    65b4:	62 96       	adiw	r28, 0x12	; 18
    65b6:	0f b6       	in	r0, 0x3f	; 63
    65b8:	f8 94       	cli
    65ba:	de bf       	out	0x3e, r29	; 62
    65bc:	0f be       	out	0x3f, r0	; 63
    65be:	cd bf       	out	0x3d, r28	; 61
    65c0:	df 91       	pop	r29
    65c2:	cf 91       	pop	r28
    65c4:	08 95       	ret

000065c6 <cmndl>:
		lcd_char(i + '0');              // 10^0
	}

	int getAbit(unsigned char X, int n) { //char(byte)  bit  ( 0 or 1)
		return ( X & (1<<n) ) >> n;
	}
    65c6:	1d 9a       	sbi	0x03, 5	; 3
    65c8:	95 e3       	ldi	r25, 0x35	; 53
    65ca:	9a 95       	dec	r25
    65cc:	f1 f7       	brne	.-4      	; 0x65ca <cmndl+0x4>
    65ce:	00 00       	nop
    65d0:	1c 98       	cbi	0x03, 4	; 3
    65d2:	1e 98       	cbi	0x03, 6	; 3
    65d4:	1f 9a       	sbi	0x03, 7	; 3
    65d6:	8b bb       	out	0x1b, r24	; 27
    65d8:	85 e3       	ldi	r24, 0x35	; 53
    65da:	8a 95       	dec	r24
    65dc:	f1 f7       	brne	.-4      	; 0x65da <cmndl+0x14>
    65de:	00 00       	nop
    65e0:	1d 98       	cbi	0x03, 5	; 3
    65e2:	08 95       	ret

000065e4 <cmndr>:
    65e4:	1d 9a       	sbi	0x03, 5	; 3
    65e6:	95 e3       	ldi	r25, 0x35	; 53
    65e8:	9a 95       	dec	r25
    65ea:	f1 f7       	brne	.-4      	; 0x65e8 <cmndr+0x4>
    65ec:	00 00       	nop
    65ee:	1c 98       	cbi	0x03, 4	; 3
    65f0:	1e 9a       	sbi	0x03, 6	; 3
    65f2:	1f 98       	cbi	0x03, 7	; 3
    65f4:	8b bb       	out	0x1b, r24	; 27
    65f6:	85 e3       	ldi	r24, 0x35	; 53
    65f8:	8a 95       	dec	r24
    65fa:	f1 f7       	brne	.-4      	; 0x65f8 <cmndr+0x14>
    65fc:	00 00       	nop
    65fe:	1d 98       	cbi	0x03, 5	; 3
    6600:	08 95       	ret

00006602 <cmnda>:
    6602:	1d 9a       	sbi	0x03, 5	; 3
    6604:	95 e3       	ldi	r25, 0x35	; 53
    6606:	9a 95       	dec	r25
    6608:	f1 f7       	brne	.-4      	; 0x6606 <cmnda+0x4>
    660a:	00 00       	nop
    660c:	1c 98       	cbi	0x03, 4	; 3
    660e:	1e 9a       	sbi	0x03, 6	; 3
    6610:	1f 9a       	sbi	0x03, 7	; 3
    6612:	8b bb       	out	0x1b, r24	; 27
    6614:	85 e3       	ldi	r24, 0x35	; 53
    6616:	8a 95       	dec	r24
    6618:	f1 f7       	brne	.-4      	; 0x6616 <cmnda+0x14>
    661a:	00 00       	nop
    661c:	1d 98       	cbi	0x03, 5	; 3
    661e:	08 95       	ret

00006620 <datal>:
    6620:	1d 9a       	sbi	0x03, 5	; 3
    6622:	95 e3       	ldi	r25, 0x35	; 53
    6624:	9a 95       	dec	r25
    6626:	f1 f7       	brne	.-4      	; 0x6624 <datal+0x4>
    6628:	00 00       	nop
    662a:	1c 9a       	sbi	0x03, 4	; 3
    662c:	1e 98       	cbi	0x03, 6	; 3
    662e:	1f 9a       	sbi	0x03, 7	; 3
    6630:	8b bb       	out	0x1b, r24	; 27
    6632:	85 e3       	ldi	r24, 0x35	; 53
    6634:	8a 95       	dec	r24
    6636:	f1 f7       	brne	.-4      	; 0x6634 <datal+0x14>
    6638:	00 00       	nop
    663a:	1d 98       	cbi	0x03, 5	; 3
    663c:	08 95       	ret

0000663e <datar>:
    663e:	1d 9a       	sbi	0x03, 5	; 3
    6640:	95 e3       	ldi	r25, 0x35	; 53
    6642:	9a 95       	dec	r25
    6644:	f1 f7       	brne	.-4      	; 0x6642 <datar+0x4>
    6646:	00 00       	nop
    6648:	1c 9a       	sbi	0x03, 4	; 3
    664a:	1e 9a       	sbi	0x03, 6	; 3
    664c:	1f 98       	cbi	0x03, 7	; 3
    664e:	8b bb       	out	0x1b, r24	; 27
    6650:	85 e3       	ldi	r24, 0x35	; 53
    6652:	8a 95       	dec	r24
    6654:	f1 f7       	brne	.-4      	; 0x6652 <datar+0x14>
    6656:	00 00       	nop
    6658:	1d 98       	cbi	0x03, 5	; 3
    665a:	08 95       	ret

0000665c <dataa>:
    665c:	1d 9a       	sbi	0x03, 5	; 3
    665e:	95 e3       	ldi	r25, 0x35	; 53
    6660:	9a 95       	dec	r25
    6662:	f1 f7       	brne	.-4      	; 0x6660 <dataa+0x4>
    6664:	00 00       	nop
    6666:	1c 9a       	sbi	0x03, 4	; 3
    6668:	1e 9a       	sbi	0x03, 6	; 3
    666a:	1f 9a       	sbi	0x03, 7	; 3
    666c:	8b bb       	out	0x1b, r24	; 27
    666e:	85 e3       	ldi	r24, 0x35	; 53
    6670:	8a 95       	dec	r24
    6672:	f1 f7       	brne	.-4      	; 0x6670 <dataa+0x14>
    6674:	00 00       	nop
    6676:	1d 98       	cbi	0x03, 5	; 3
    6678:	08 95       	ret

0000667a <lcd_clear>:
    667a:	cf 93       	push	r28
    667c:	df 93       	push	r29
    667e:	d8 eb       	ldi	r29, 0xB8	; 184
    6680:	8d 2f       	mov	r24, r29
    6682:	bf df       	rcall	.-130    	; 0x6602 <cmnda>
    6684:	80 e4       	ldi	r24, 0x40	; 64
    6686:	bd df       	rcall	.-134    	; 0x6602 <cmnda>
    6688:	c0 e4       	ldi	r28, 0x40	; 64
    668a:	80 e0       	ldi	r24, 0x00	; 0
    668c:	e7 df       	rcall	.-50     	; 0x665c <dataa>
    668e:	c1 50       	subi	r28, 0x01	; 1
    6690:	e1 f7       	brne	.-8      	; 0x668a <lcd_clear+0x10>
    6692:	df 5f       	subi	r29, 0xFF	; 255
    6694:	d0 3c       	cpi	r29, 0xC0	; 192
    6696:	a1 f7       	brne	.-24     	; 0x6680 <lcd_clear+0x6>
    6698:	df 91       	pop	r29
    669a:	cf 91       	pop	r28
    669c:	08 95       	ret

0000669e <lcd_init>:
    669e:	8f e3       	ldi	r24, 0x3F	; 63
    66a0:	b0 df       	rcall	.-160    	; 0x6602 <cmnda>
    66a2:	80 ec       	ldi	r24, 0xC0	; 192
    66a4:	ae df       	rcall	.-164    	; 0x6602 <cmnda>
    66a6:	88 eb       	ldi	r24, 0xB8	; 184
    66a8:	ac df       	rcall	.-168    	; 0x6602 <cmnda>
    66aa:	80 e4       	ldi	r24, 0x40	; 64
    66ac:	aa cf       	rjmp	.-172    	; 0x6602 <cmnda>
    66ae:	08 95       	ret

000066b0 <lcd_xy>:
    66b0:	80 93 2a 08 	sts	0x082A, r24	; 0x80082a <xchar>
    66b4:	60 93 2d 0c 	sts	0x0C2D, r22	; 0x800c2d <ychar>
    66b8:	88 54       	subi	r24, 0x48	; 72
    66ba:	a3 df       	rcall	.-186    	; 0x6602 <cmnda>
    66bc:	80 91 2d 0c 	lds	r24, 0x0C2D	; 0x800c2d <ychar>
    66c0:	8a 30       	cpi	r24, 0x0A	; 10
    66c2:	38 f4       	brcc	.+14     	; 0x66d2 <lcd_xy+0x22>
    66c4:	98 2f       	mov	r25, r24
    66c6:	99 0f       	add	r25, r25
    66c8:	89 0f       	add	r24, r25
    66ca:	88 0f       	add	r24, r24
    66cc:	8c 5b       	subi	r24, 0xBC	; 188
    66ce:	7b cf       	rjmp	.-266    	; 0x65c6 <cmndl>
    66d0:	08 95       	ret
    66d2:	90 e0       	ldi	r25, 0x00	; 0
    66d4:	0a 97       	sbiw	r24, 0x0a	; 10
    66d6:	98 2f       	mov	r25, r24
    66d8:	99 0f       	add	r25, r25
    66da:	89 0f       	add	r24, r25
    66dc:	88 0f       	add	r24, r24
    66de:	80 5c       	subi	r24, 0xC0	; 192
    66e0:	81 cf       	rjmp	.-254    	; 0x65e4 <cmndr>
    66e2:	08 95       	ret

000066e4 <lcd_char>:
    66e4:	1f 93       	push	r17
    66e6:	cf 93       	push	r28
    66e8:	df 93       	push	r29
    66ea:	90 e0       	ldi	r25, 0x00	; 0
    66ec:	ec 01       	movw	r28, r24
    66ee:	cc 0f       	add	r28, r28
    66f0:	dd 1f       	adc	r29, r29
    66f2:	cc 0f       	add	r28, r28
    66f4:	dd 1f       	adc	r29, r29
    66f6:	8c 0f       	add	r24, r28
    66f8:	9d 1f       	adc	r25, r29
    66fa:	ec 01       	movw	r28, r24
    66fc:	c2 55       	subi	r28, 0x52	; 82
    66fe:	df 4f       	sbci	r29, 0xFF	; 255
    6700:	15 e0       	ldi	r17, 0x05	; 5
    6702:	80 91 2d 0c 	lds	r24, 0x0C2D	; 0x800c2d <ychar>
    6706:	8a 30       	cpi	r24, 0x0A	; 10
    6708:	18 f4       	brcc	.+6      	; 0x6710 <lcd_char+0x2c>
    670a:	88 81       	ld	r24, Y
    670c:	89 df       	rcall	.-238    	; 0x6620 <datal>
    670e:	02 c0       	rjmp	.+4      	; 0x6714 <lcd_char+0x30>
    6710:	88 81       	ld	r24, Y
    6712:	95 df       	rcall	.-214    	; 0x663e <datar>
    6714:	11 50       	subi	r17, 0x01	; 1
    6716:	21 96       	adiw	r28, 0x01	; 1
    6718:	11 11       	cpse	r17, r1
    671a:	f3 cf       	rjmp	.-26     	; 0x6702 <lcd_char+0x1e>
    671c:	80 91 2d 0c 	lds	r24, 0x0C2D	; 0x800c2d <ychar>
    6720:	8a 30       	cpi	r24, 0x0A	; 10
    6722:	18 f4       	brcc	.+6      	; 0x672a <lcd_char+0x46>
    6724:	80 e0       	ldi	r24, 0x00	; 0
    6726:	7c df       	rcall	.-264    	; 0x6620 <datal>
    6728:	02 c0       	rjmp	.+4      	; 0x672e <lcd_char+0x4a>
    672a:	80 e0       	ldi	r24, 0x00	; 0
    672c:	88 df       	rcall	.-240    	; 0x663e <datar>
    672e:	df 91       	pop	r29
    6730:	cf 91       	pop	r28
    6732:	1f 91       	pop	r17
    6734:	08 95       	ret

00006736 <lcd_string>:
    6736:	cf 93       	push	r28
    6738:	df 93       	push	r29
    673a:	ea 01       	movw	r28, r20
    673c:	80 93 2a 08 	sts	0x082A, r24	; 0x80082a <xchar>
    6740:	60 93 2d 0c 	sts	0x0C2D, r22	; 0x800c2d <ychar>
    6744:	b5 df       	rcall	.-150    	; 0x66b0 <lcd_xy>
    6746:	88 81       	ld	r24, Y
    6748:	88 23       	and	r24, r24
    674a:	81 f0       	breq	.+32     	; 0x676c <lcd_string+0x36>
    674c:	80 91 2d 0c 	lds	r24, 0x0C2D	; 0x800c2d <ychar>
    6750:	8a 30       	cpi	r24, 0x0A	; 10
    6752:	11 f4       	brne	.+4      	; 0x6758 <lcd_string+0x22>
    6754:	80 e4       	ldi	r24, 0x40	; 64
    6756:	46 df       	rcall	.-372    	; 0x65e4 <cmndr>
    6758:	89 91       	ld	r24, Y+
    675a:	c4 df       	rcall	.-120    	; 0x66e4 <lcd_char>
    675c:	80 91 2d 0c 	lds	r24, 0x0C2D	; 0x800c2d <ychar>
    6760:	8f 5f       	subi	r24, 0xFF	; 255
    6762:	80 93 2d 0c 	sts	0x0C2D, r24	; 0x800c2d <ychar>
    6766:	88 81       	ld	r24, Y
    6768:	81 11       	cpse	r24, r1
    676a:	f0 cf       	rjmp	.-32     	; 0x674c <lcd_string+0x16>
    676c:	df 91       	pop	r29
    676e:	cf 91       	pop	r28
    6770:	08 95       	ret

00006772 <GLCD_Axis_xy>:
    6772:	cf 93       	push	r28
    6774:	c6 2f       	mov	r28, r22
    6776:	88 54       	subi	r24, 0x48	; 72
    6778:	44 df       	rcall	.-376    	; 0x6602 <cmnda>
    677a:	c0 34       	cpi	r28, 0x40	; 64
    677c:	20 f4       	brcc	.+8      	; 0x6786 <GLCD_Axis_xy+0x14>
    677e:	80 e4       	ldi	r24, 0x40	; 64
    6780:	8c 0f       	add	r24, r28
    6782:	21 df       	rcall	.-446    	; 0x65c6 <cmndl>
    6784:	02 c0       	rjmp	.+4      	; 0x678a <GLCD_Axis_xy+0x18>
    6786:	8c 2f       	mov	r24, r28
    6788:	2d df       	rcall	.-422    	; 0x65e4 <cmndr>
    678a:	cf 91       	pop	r28
    678c:	08 95       	ret

0000678e <ScreenBuffer_clear>:
    678e:	ed e2       	ldi	r30, 0x2D	; 45
    6790:	f8 e0       	ldi	r31, 0x08	; 8
    6792:	2d e2       	ldi	r18, 0x2D	; 45
    6794:	3c e0       	ldi	r19, 0x0C	; 12
    6796:	08 c0       	rjmp	.+16     	; 0x67a8 <ScreenBuffer_clear+0x1a>
    6798:	11 92       	st	Z+, r1
    679a:	e8 17       	cp	r30, r24
    679c:	f9 07       	cpc	r31, r25
    679e:	e1 f7       	brne	.-8      	; 0x6798 <ScreenBuffer_clear+0xa>
    67a0:	fc 01       	movw	r30, r24
    67a2:	82 17       	cp	r24, r18
    67a4:	93 07       	cpc	r25, r19
    67a6:	21 f0       	breq	.+8      	; 0x67b0 <ScreenBuffer_clear+0x22>
    67a8:	cf 01       	movw	r24, r30
    67aa:	80 58       	subi	r24, 0x80	; 128
    67ac:	9f 4f       	sbci	r25, 0xFF	; 255
    67ae:	f4 cf       	rjmp	.-24     	; 0x6798 <ScreenBuffer_clear+0xa>
    67b0:	08 95       	ret

000067b2 <GLCD_1DigitDecimal>:
    67b2:	9d ec       	ldi	r25, 0xCD	; 205
    67b4:	89 9f       	mul	r24, r25
    67b6:	91 2d       	mov	r25, r1
    67b8:	11 24       	eor	r1, r1
    67ba:	96 95       	lsr	r25
    67bc:	96 95       	lsr	r25
    67be:	96 95       	lsr	r25
    67c0:	99 0f       	add	r25, r25
    67c2:	29 2f       	mov	r18, r25
    67c4:	22 0f       	add	r18, r18
    67c6:	22 0f       	add	r18, r18
    67c8:	92 0f       	add	r25, r18
    67ca:	89 1b       	sub	r24, r25
    67cc:	98 2f       	mov	r25, r24
    67ce:	31 f4       	brne	.+12     	; 0x67dc <GLCD_1DigitDecimal+0x2a>
    67d0:	61 11       	cpse	r22, r1
    67d2:	04 c0       	rjmp	.+8      	; 0x67dc <GLCD_1DigitDecimal+0x2a>
    67d4:	80 e2       	ldi	r24, 0x20	; 32
    67d6:	86 df       	rcall	.-244    	; 0x66e4 <lcd_char>
    67d8:	80 e0       	ldi	r24, 0x00	; 0
    67da:	08 95       	ret
    67dc:	80 e3       	ldi	r24, 0x30	; 48
    67de:	89 0f       	add	r24, r25
    67e0:	81 df       	rcall	.-254    	; 0x66e4 <lcd_char>
    67e2:	81 e0       	ldi	r24, 0x01	; 1
    67e4:	08 95       	ret

000067e6 <GLCD_Draw>:

	void GLCD_Draw(unsigned char xx,unsigned char y, int k)
	{
    67e6:	cf 93       	push	r28
    67e8:	df 93       	push	r29
		unsigned char x, i;

		
		//  (128.64)  .
		if((xx > 63) || (y > 127)) return;
    67ea:	80 34       	cpi	r24, 0x40	; 64
    67ec:	08 f0       	brcs	.+2      	; 0x67f0 <GLCD_Draw+0xa>
    67ee:	58 c0       	rjmp	.+176    	; 0x68a0 <GLCD_Draw+0xba>
    67f0:	66 23       	and	r22, r22
    67f2:	0c f4       	brge	.+2      	; 0x67f6 <GLCD_Draw+0x10>
    67f4:	55 c0       	rjmp	.+170    	; 0x68a0 <GLCD_Draw+0xba>
		x = xx / 8;                 // calculate x address
    67f6:	d8 2f       	mov	r29, r24
    67f8:	d6 95       	lsr	r29
    67fa:	d6 95       	lsr	r29
    67fc:	d6 95       	lsr	r29
		i = xx % 8;
    67fe:	87 70       	andi	r24, 0x07	; 7
		if(i == 0)      { i = 0x01; }
    6800:	71 f0       	breq	.+28     	; 0x681e <GLCD_Draw+0x38>
		else if(i == 1) { i = 0x02; }
    6802:	81 30       	cpi	r24, 0x01	; 1
    6804:	71 f0       	breq	.+28     	; 0x6822 <GLCD_Draw+0x3c>
		else if(i == 2) { i = 0x04; }
    6806:	82 30       	cpi	r24, 0x02	; 2
    6808:	71 f0       	breq	.+28     	; 0x6826 <GLCD_Draw+0x40>
		else if(i == 3) { i = 0x08; }
    680a:	83 30       	cpi	r24, 0x03	; 3
    680c:	71 f0       	breq	.+28     	; 0x682a <GLCD_Draw+0x44>
		else if(i == 4) { i = 0x10; }
    680e:	84 30       	cpi	r24, 0x04	; 4
    6810:	71 f0       	breq	.+28     	; 0x682e <GLCD_Draw+0x48>
		else if(i == 5) { i = 0x20; }
    6812:	85 30       	cpi	r24, 0x05	; 5
    6814:	71 f0       	breq	.+28     	; 0x6832 <GLCD_Draw+0x4c>
		else if(i == 6) { i = 0x40; }
    6816:	86 30       	cpi	r24, 0x06	; 6
    6818:	71 f0       	breq	.+28     	; 0x6836 <GLCD_Draw+0x50>
		else            { i = 0x80; }
    681a:	80 e8       	ldi	r24, 0x80	; 128
    681c:	0d c0       	rjmp	.+26     	; 0x6838 <GLCD_Draw+0x52>
		
		//  (128.64)  .
		if((xx > 63) || (y > 127)) return;
		x = xx / 8;                 // calculate x address
		i = xx % 8;
		if(i == 0)      { i = 0x01; }
    681e:	81 e0       	ldi	r24, 0x01	; 1
    6820:	0b c0       	rjmp	.+22     	; 0x6838 <GLCD_Draw+0x52>
		else if(i == 1) { i = 0x02; }
    6822:	82 e0       	ldi	r24, 0x02	; 2
    6824:	09 c0       	rjmp	.+18     	; 0x6838 <GLCD_Draw+0x52>
		else if(i == 2) { i = 0x04; }
    6826:	84 e0       	ldi	r24, 0x04	; 4
    6828:	07 c0       	rjmp	.+14     	; 0x6838 <GLCD_Draw+0x52>
		else if(i == 3) { i = 0x08; }
    682a:	88 e0       	ldi	r24, 0x08	; 8
    682c:	05 c0       	rjmp	.+10     	; 0x6838 <GLCD_Draw+0x52>
		else if(i == 4) { i = 0x10; }
    682e:	80 e1       	ldi	r24, 0x10	; 16
    6830:	03 c0       	rjmp	.+6      	; 0x6838 <GLCD_Draw+0x52>
		else if(i == 5) { i = 0x20; }
    6832:	80 e2       	ldi	r24, 0x20	; 32
    6834:	01 c0       	rjmp	.+2      	; 0x6838 <GLCD_Draw+0x52>
		else if(i == 6) { i = 0x40; }
    6836:	80 e4       	ldi	r24, 0x40	; 64
		else            { i = 0x80; }
		if(!k)
    6838:	45 2b       	or	r20, r21
    683a:	69 f4       	brne	.+26     	; 0x6856 <GLCD_Draw+0x70>
		{
			i ^= 0xFF;
			ScreenBuffer[x][y] &= i;
    683c:	90 e8       	ldi	r25, 0x80	; 128
    683e:	d9 9f       	mul	r29, r25
    6840:	f0 01       	movw	r30, r0
    6842:	11 24       	eor	r1, r1
    6844:	e3 5d       	subi	r30, 0xD3	; 211
    6846:	f7 4f       	sbci	r31, 0xF7	; 247
    6848:	e6 0f       	add	r30, r22
    684a:	f1 1d       	adc	r31, r1
    684c:	80 95       	com	r24
    684e:	90 81       	ld	r25, Z
    6850:	89 23       	and	r24, r25
    6852:	80 83       	st	Z, r24
    6854:	0b c0       	rjmp	.+22     	; 0x686c <GLCD_Draw+0x86>
		}
		else
			ScreenBuffer[x][y] |= i;
    6856:	90 e8       	ldi	r25, 0x80	; 128
    6858:	d9 9f       	mul	r29, r25
    685a:	f0 01       	movw	r30, r0
    685c:	11 24       	eor	r1, r1
    685e:	e3 5d       	subi	r30, 0xD3	; 211
    6860:	f7 4f       	sbci	r31, 0xF7	; 247
    6862:	e6 0f       	add	r30, r22
    6864:	f1 1d       	adc	r31, r1
    6866:	90 81       	ld	r25, Z
    6868:	89 2b       	or	r24, r25
    686a:	80 83       	st	Z, r24
    686c:	c6 2f       	mov	r28, r22
		GLCD_Axis_xy(x, y);          // draw dot on GLCD screen
    686e:	8d 2f       	mov	r24, r29
    6870:	80 df       	rcall	.-256    	; 0x6772 <GLCD_Axis_xy>
		if(y <= 63) { datal(ScreenBuffer[x][y]);  }
    6872:	c0 34       	cpi	r28, 0x40	; 64
    6874:	58 f4       	brcc	.+22     	; 0x688c <GLCD_Draw+0xa6>
    6876:	80 e8       	ldi	r24, 0x80	; 128
    6878:	d8 9f       	mul	r29, r24
    687a:	f0 01       	movw	r30, r0
    687c:	11 24       	eor	r1, r1
    687e:	e3 5d       	subi	r30, 0xD3	; 211
    6880:	f7 4f       	sbci	r31, 0xF7	; 247
    6882:	ec 0f       	add	r30, r28
    6884:	f1 1d       	adc	r31, r1
    6886:	80 81       	ld	r24, Z
    6888:	cb de       	rcall	.-618    	; 0x6620 <datal>
    688a:	0a c0       	rjmp	.+20     	; 0x68a0 <GLCD_Draw+0xba>
		else        { datar(ScreenBuffer[x][y]);  }
    688c:	90 e8       	ldi	r25, 0x80	; 128
    688e:	d9 9f       	mul	r29, r25
    6890:	f0 01       	movw	r30, r0
    6892:	11 24       	eor	r1, r1
    6894:	e3 5d       	subi	r30, 0xD3	; 211
    6896:	f7 4f       	sbci	r31, 0xF7	; 247
    6898:	ec 0f       	add	r30, r28
    689a:	f1 1d       	adc	r31, r1
    689c:	80 81       	ld	r24, Z
    689e:	cf de       	rcall	.-610    	; 0x663e <datar>
	}
    68a0:	df 91       	pop	r29
    68a2:	cf 91       	pop	r28
    68a4:	08 95       	ret

000068a6 <glcd_draw_bitmap>:

	// 
	/* bit map draw by dot */
	void glcd_draw_bitmap(const unsigned char *bmp,unsigned char x, unsigned char y, unsigned char dx, unsigned char dy)
	{
    68a6:	4f 92       	push	r4
    68a8:	5f 92       	push	r5
    68aa:	6f 92       	push	r6
    68ac:	7f 92       	push	r7
    68ae:	8f 92       	push	r8
    68b0:	9f 92       	push	r9
    68b2:	af 92       	push	r10
    68b4:	bf 92       	push	r11
    68b6:	cf 92       	push	r12
    68b8:	df 92       	push	r13
    68ba:	ef 92       	push	r14
    68bc:	ff 92       	push	r15
    68be:	0f 93       	push	r16
    68c0:	1f 93       	push	r17
    68c2:	cf 93       	push	r28
    68c4:	df 93       	push	r29
    68c6:	ec 01       	movw	r28, r24
    68c8:	44 2e       	mov	r4, r20
		unsigned char i,j;
		unsigned char *bitmap_ptr;
		int counter = 0;
		for(j=0; j <dx ; ++j) {
    68ca:	22 23       	and	r18, r18
    68cc:	09 f4       	brne	.+2      	; 0x68d0 <glcd_draw_bitmap+0x2a>
    68ce:	52 c0       	rjmp	.+164    	; 0x6974 <glcd_draw_bitmap+0xce>
    68d0:	52 2e       	mov	r5, r18
    68d2:	56 0e       	add	r5, r22
    68d4:	76 2e       	mov	r7, r22
    68d6:	e1 2c       	mov	r14, r1
    68d8:	f1 2c       	mov	r15, r1
    68da:	60 2e       	mov	r6, r16
    68dc:	64 0e       	add	r6, r20
			for(i = 0 ; i<dy ; ++i) {
				if(counter == 0) { //byte 8bit   byte .
					bitmap_ptr = (unsigned char *)pgm_read_byte(bmp++); //progem  bit byte .
				}
				GLCD_Draw(x+j,y+i, getAbit(bitmap_ptr,7-counter)); //x,y getAbit 1   0  .
    68de:	0f 2e       	mov	r0, r31
    68e0:	f7 e0       	ldi	r31, 0x07	; 7
    68e2:	8f 2e       	mov	r8, r31
    68e4:	91 2c       	mov	r9, r1
    68e6:	f0 2d       	mov	r31, r0
    68e8:	aa 24       	eor	r10, r10
    68ea:	a3 94       	inc	r10
    68ec:	b1 2c       	mov	r11, r1
    68ee:	3e c0       	rjmp	.+124    	; 0x696c <glcd_draw_bitmap+0xc6>
		unsigned char i,j;
		unsigned char *bitmap_ptr;
		int counter = 0;
		for(j=0; j <dx ; ++j) {
			for(i = 0 ; i<dy ; ++i) {
				if(counter == 0) { //byte 8bit   byte .
    68f0:	e1 14       	cp	r14, r1
    68f2:	f1 04       	cpc	r15, r1
    68f4:	b1 f4       	brne	.+44     	; 0x6922 <glcd_draw_bitmap+0x7c>
					bitmap_ptr = (unsigned char *)pgm_read_byte(bmp++); //progem  bit byte .
    68f6:	7e 01       	movw	r14, r28
    68f8:	8f ef       	ldi	r24, 0xFF	; 255
    68fa:	e8 1a       	sub	r14, r24
    68fc:	f8 0a       	sbc	r15, r24
    68fe:	fe 01       	movw	r30, r28
    6900:	44 91       	lpm	r20, Z
    6902:	c4 2e       	mov	r12, r20
    6904:	d1 2c       	mov	r13, r1
				}
				GLCD_Draw(x+j,y+i, getAbit(bitmap_ptr,7-counter)); //x,y getAbit 1   0  .
    6906:	40 78       	andi	r20, 0x80	; 128
    6908:	50 e0       	ldi	r21, 0x00	; 0
    690a:	44 0f       	add	r20, r20
    690c:	45 2f       	mov	r20, r21
    690e:	44 1f       	adc	r20, r20
    6910:	55 0b       	sbc	r21, r21
    6912:	61 2f       	mov	r22, r17
    6914:	87 2d       	mov	r24, r7
    6916:	67 df       	rcall	.-306    	; 0x67e6 <GLCD_Draw>
		unsigned char *bitmap_ptr;
		int counter = 0;
		for(j=0; j <dx ; ++j) {
			for(i = 0 ; i<dy ; ++i) {
				if(counter == 0) { //byte 8bit   byte .
					bitmap_ptr = (unsigned char *)pgm_read_byte(bmp++); //progem  bit byte .
    6918:	e7 01       	movw	r28, r14
				}
				GLCD_Draw(x+j,y+i, getAbit(bitmap_ptr,7-counter)); //x,y getAbit 1   0  .
		
				++counter;
    691a:	ee 24       	eor	r14, r14
    691c:	e3 94       	inc	r14
    691e:	f1 2c       	mov	r15, r1
    6920:	1f c0       	rjmp	.+62     	; 0x6960 <glcd_draw_bitmap+0xba>
		for(j=0; j <dx ; ++j) {
			for(i = 0 ; i<dy ; ++i) {
				if(counter == 0) { //byte 8bit   byte .
					bitmap_ptr = (unsigned char *)pgm_read_byte(bmp++); //progem  bit byte .
				}
				GLCD_Draw(x+j,y+i, getAbit(bitmap_ptr,7-counter)); //x,y getAbit 1   0  .
    6922:	94 01       	movw	r18, r8
    6924:	2e 19       	sub	r18, r14
    6926:	3f 09       	sbc	r19, r15
    6928:	c5 01       	movw	r24, r10
    692a:	02 2e       	mov	r0, r18
    692c:	02 c0       	rjmp	.+4      	; 0x6932 <glcd_draw_bitmap+0x8c>
    692e:	88 0f       	add	r24, r24
    6930:	99 1f       	adc	r25, r25
    6932:	0a 94       	dec	r0
    6934:	e2 f7       	brpl	.-8      	; 0x692e <glcd_draw_bitmap+0x88>
    6936:	a6 01       	movw	r20, r12
    6938:	55 27       	eor	r21, r21
    693a:	48 23       	and	r20, r24
    693c:	59 23       	and	r21, r25
    693e:	02 c0       	rjmp	.+4      	; 0x6944 <glcd_draw_bitmap+0x9e>
    6940:	55 95       	asr	r21
    6942:	47 95       	ror	r20
    6944:	2a 95       	dec	r18
    6946:	e2 f7       	brpl	.-8      	; 0x6940 <glcd_draw_bitmap+0x9a>
    6948:	61 2f       	mov	r22, r17
    694a:	87 2d       	mov	r24, r7
    694c:	4c df       	rcall	.-360    	; 0x67e6 <GLCD_Draw>
		
				++counter;
    694e:	ff ef       	ldi	r31, 0xFF	; 255
    6950:	ef 1a       	sub	r14, r31
    6952:	ff 0a       	sbc	r15, r31
				if(counter == 8) { //8bit .
    6954:	88 e0       	ldi	r24, 0x08	; 8
    6956:	e8 16       	cp	r14, r24
    6958:	f1 04       	cpc	r15, r1
    695a:	11 f4       	brne	.+4      	; 0x6960 <glcd_draw_bitmap+0xba>
					counter = 0;
    695c:	e1 2c       	mov	r14, r1
    695e:	f1 2c       	mov	r15, r1
    6960:	1f 5f       	subi	r17, 0xFF	; 255
	{
		unsigned char i,j;
		unsigned char *bitmap_ptr;
		int counter = 0;
		for(j=0; j <dx ; ++j) {
			for(i = 0 ; i<dy ; ++i) {
    6962:	16 11       	cpse	r17, r6
    6964:	c5 cf       	rjmp	.-118    	; 0x68f0 <glcd_draw_bitmap+0x4a>
    6966:	73 94       	inc	r7
	void glcd_draw_bitmap(const unsigned char *bmp,unsigned char x, unsigned char y, unsigned char dx, unsigned char dy)
	{
		unsigned char i,j;
		unsigned char *bitmap_ptr;
		int counter = 0;
		for(j=0; j <dx ; ++j) {
    6968:	75 14       	cp	r7, r5
    696a:	21 f0       	breq	.+8      	; 0x6974 <glcd_draw_bitmap+0xce>
			for(i = 0 ; i<dy ; ++i) {
    696c:	00 23       	and	r16, r16
    696e:	d9 f3       	breq	.-10     	; 0x6966 <glcd_draw_bitmap+0xc0>
    6970:	14 2d       	mov	r17, r4
    6972:	be cf       	rjmp	.-132    	; 0x68f0 <glcd_draw_bitmap+0x4a>
					counter = 0;
				}
			}
		}
		
	}
    6974:	df 91       	pop	r29
    6976:	cf 91       	pop	r28
    6978:	1f 91       	pop	r17
    697a:	0f 91       	pop	r16
    697c:	ff 90       	pop	r15
    697e:	ef 90       	pop	r14
    6980:	df 90       	pop	r13
    6982:	cf 90       	pop	r12
    6984:	bf 90       	pop	r11
    6986:	af 90       	pop	r10
    6988:	9f 90       	pop	r9
    698a:	8f 90       	pop	r8
    698c:	7f 90       	pop	r7
    698e:	6f 90       	pop	r6
    6990:	5f 90       	pop	r5
    6992:	4f 90       	pop	r4
    6994:	08 95       	ret

00006996 <__udivmodhi4>:
    6996:	aa 1b       	sub	r26, r26
    6998:	bb 1b       	sub	r27, r27
    699a:	51 e1       	ldi	r21, 0x11	; 17
    699c:	07 c0       	rjmp	.+14     	; 0x69ac <__udivmodhi4_ep>

0000699e <__udivmodhi4_loop>:
    699e:	aa 1f       	adc	r26, r26
    69a0:	bb 1f       	adc	r27, r27
    69a2:	a6 17       	cp	r26, r22
    69a4:	b7 07       	cpc	r27, r23
    69a6:	10 f0       	brcs	.+4      	; 0x69ac <__udivmodhi4_ep>
    69a8:	a6 1b       	sub	r26, r22
    69aa:	b7 0b       	sbc	r27, r23

000069ac <__udivmodhi4_ep>:
    69ac:	88 1f       	adc	r24, r24
    69ae:	99 1f       	adc	r25, r25
    69b0:	5a 95       	dec	r21
    69b2:	a9 f7       	brne	.-22     	; 0x699e <__udivmodhi4_loop>
    69b4:	80 95       	com	r24
    69b6:	90 95       	com	r25
    69b8:	bc 01       	movw	r22, r24
    69ba:	cd 01       	movw	r24, r26
    69bc:	08 95       	ret

000069be <__divmodhi4>:
    69be:	97 fb       	bst	r25, 7
    69c0:	07 2e       	mov	r0, r23
    69c2:	16 f4       	brtc	.+4      	; 0x69c8 <__divmodhi4+0xa>
    69c4:	00 94       	com	r0
    69c6:	06 d0       	rcall	.+12     	; 0x69d4 <__divmodhi4_neg1>
    69c8:	77 fd       	sbrc	r23, 7
    69ca:	08 d0       	rcall	.+16     	; 0x69dc <__divmodhi4_neg2>
    69cc:	e4 df       	rcall	.-56     	; 0x6996 <__udivmodhi4>
    69ce:	07 fc       	sbrc	r0, 7
    69d0:	05 d0       	rcall	.+10     	; 0x69dc <__divmodhi4_neg2>
    69d2:	3e f4       	brtc	.+14     	; 0x69e2 <__divmodhi4_exit>

000069d4 <__divmodhi4_neg1>:
    69d4:	90 95       	com	r25
    69d6:	81 95       	neg	r24
    69d8:	9f 4f       	sbci	r25, 0xFF	; 255
    69da:	08 95       	ret

000069dc <__divmodhi4_neg2>:
    69dc:	70 95       	com	r23
    69de:	61 95       	neg	r22
    69e0:	7f 4f       	sbci	r23, 0xFF	; 255

000069e2 <__divmodhi4_exit>:
    69e2:	08 95       	ret

000069e4 <__umulhisi3>:
    69e4:	a2 9f       	mul	r26, r18
    69e6:	b0 01       	movw	r22, r0
    69e8:	b3 9f       	mul	r27, r19
    69ea:	c0 01       	movw	r24, r0
    69ec:	a3 9f       	mul	r26, r19
    69ee:	70 0d       	add	r23, r0
    69f0:	81 1d       	adc	r24, r1
    69f2:	11 24       	eor	r1, r1
    69f4:	91 1d       	adc	r25, r1
    69f6:	b2 9f       	mul	r27, r18
    69f8:	70 0d       	add	r23, r0
    69fa:	81 1d       	adc	r24, r1
    69fc:	11 24       	eor	r1, r1
    69fe:	91 1d       	adc	r25, r1
    6a00:	08 95       	ret

00006a02 <do_rand>:
    6a02:	8f 92       	push	r8
    6a04:	9f 92       	push	r9
    6a06:	af 92       	push	r10
    6a08:	bf 92       	push	r11
    6a0a:	cf 92       	push	r12
    6a0c:	df 92       	push	r13
    6a0e:	ef 92       	push	r14
    6a10:	ff 92       	push	r15
    6a12:	cf 93       	push	r28
    6a14:	df 93       	push	r29
    6a16:	ec 01       	movw	r28, r24
    6a18:	68 81       	ld	r22, Y
    6a1a:	79 81       	ldd	r23, Y+1	; 0x01
    6a1c:	8a 81       	ldd	r24, Y+2	; 0x02
    6a1e:	9b 81       	ldd	r25, Y+3	; 0x03
    6a20:	61 15       	cp	r22, r1
    6a22:	71 05       	cpc	r23, r1
    6a24:	81 05       	cpc	r24, r1
    6a26:	91 05       	cpc	r25, r1
    6a28:	21 f4       	brne	.+8      	; 0x6a32 <do_rand+0x30>
    6a2a:	64 e2       	ldi	r22, 0x24	; 36
    6a2c:	79 ed       	ldi	r23, 0xD9	; 217
    6a2e:	8b e5       	ldi	r24, 0x5B	; 91
    6a30:	97 e0       	ldi	r25, 0x07	; 7
    6a32:	2d e1       	ldi	r18, 0x1D	; 29
    6a34:	33 ef       	ldi	r19, 0xF3	; 243
    6a36:	41 e0       	ldi	r20, 0x01	; 1
    6a38:	50 e0       	ldi	r21, 0x00	; 0
    6a3a:	38 d0       	rcall	.+112    	; 0x6aac <__divmodsi4>
    6a3c:	49 01       	movw	r8, r18
    6a3e:	5a 01       	movw	r10, r20
    6a40:	9b 01       	movw	r18, r22
    6a42:	ac 01       	movw	r20, r24
    6a44:	a7 ea       	ldi	r26, 0xA7	; 167
    6a46:	b1 e4       	ldi	r27, 0x41	; 65
    6a48:	4d d0       	rcall	.+154    	; 0x6ae4 <__muluhisi3>
    6a4a:	6b 01       	movw	r12, r22
    6a4c:	7c 01       	movw	r14, r24
    6a4e:	ac ee       	ldi	r26, 0xEC	; 236
    6a50:	b4 ef       	ldi	r27, 0xF4	; 244
    6a52:	a5 01       	movw	r20, r10
    6a54:	94 01       	movw	r18, r8
    6a56:	52 d0       	rcall	.+164    	; 0x6afc <__mulohisi3>
    6a58:	dc 01       	movw	r26, r24
    6a5a:	cb 01       	movw	r24, r22
    6a5c:	8c 0d       	add	r24, r12
    6a5e:	9d 1d       	adc	r25, r13
    6a60:	ae 1d       	adc	r26, r14
    6a62:	bf 1d       	adc	r27, r15
    6a64:	b7 ff       	sbrs	r27, 7
    6a66:	03 c0       	rjmp	.+6      	; 0x6a6e <do_rand+0x6c>
    6a68:	01 97       	sbiw	r24, 0x01	; 1
    6a6a:	a1 09       	sbc	r26, r1
    6a6c:	b0 48       	sbci	r27, 0x80	; 128
    6a6e:	88 83       	st	Y, r24
    6a70:	99 83       	std	Y+1, r25	; 0x01
    6a72:	aa 83       	std	Y+2, r26	; 0x02
    6a74:	bb 83       	std	Y+3, r27	; 0x03
    6a76:	9f 77       	andi	r25, 0x7F	; 127
    6a78:	df 91       	pop	r29
    6a7a:	cf 91       	pop	r28
    6a7c:	ff 90       	pop	r15
    6a7e:	ef 90       	pop	r14
    6a80:	df 90       	pop	r13
    6a82:	cf 90       	pop	r12
    6a84:	bf 90       	pop	r11
    6a86:	af 90       	pop	r10
    6a88:	9f 90       	pop	r9
    6a8a:	8f 90       	pop	r8
    6a8c:	08 95       	ret

00006a8e <rand_r>:
    6a8e:	b9 cf       	rjmp	.-142    	; 0x6a02 <do_rand>

00006a90 <rand>:
    6a90:	80 e0       	ldi	r24, 0x00	; 0
    6a92:	91 e0       	ldi	r25, 0x01	; 1
    6a94:	b6 cf       	rjmp	.-148    	; 0x6a02 <do_rand>

00006a96 <srand>:
    6a96:	a0 e0       	ldi	r26, 0x00	; 0
    6a98:	b0 e0       	ldi	r27, 0x00	; 0
    6a9a:	80 93 00 01 	sts	0x0100, r24	; 0x800100 <__DATA_REGION_ORIGIN__>
    6a9e:	90 93 01 01 	sts	0x0101, r25	; 0x800101 <__DATA_REGION_ORIGIN__+0x1>
    6aa2:	a0 93 02 01 	sts	0x0102, r26	; 0x800102 <__DATA_REGION_ORIGIN__+0x2>
    6aa6:	b0 93 03 01 	sts	0x0103, r27	; 0x800103 <__DATA_REGION_ORIGIN__+0x3>
    6aaa:	08 95       	ret

00006aac <__divmodsi4>:
    6aac:	05 2e       	mov	r0, r21
    6aae:	97 fb       	bst	r25, 7
    6ab0:	16 f4       	brtc	.+4      	; 0x6ab6 <__divmodsi4+0xa>
    6ab2:	00 94       	com	r0
    6ab4:	0f d0       	rcall	.+30     	; 0x6ad4 <__negsi2>
    6ab6:	57 fd       	sbrc	r21, 7
    6ab8:	05 d0       	rcall	.+10     	; 0x6ac4 <__divmodsi4_neg2>
    6aba:	24 d0       	rcall	.+72     	; 0x6b04 <__udivmodsi4>
    6abc:	07 fc       	sbrc	r0, 7
    6abe:	02 d0       	rcall	.+4      	; 0x6ac4 <__divmodsi4_neg2>
    6ac0:	46 f4       	brtc	.+16     	; 0x6ad2 <__divmodsi4_exit>
    6ac2:	08 c0       	rjmp	.+16     	; 0x6ad4 <__negsi2>

00006ac4 <__divmodsi4_neg2>:
    6ac4:	50 95       	com	r21
    6ac6:	40 95       	com	r20
    6ac8:	30 95       	com	r19
    6aca:	21 95       	neg	r18
    6acc:	3f 4f       	sbci	r19, 0xFF	; 255
    6ace:	4f 4f       	sbci	r20, 0xFF	; 255
    6ad0:	5f 4f       	sbci	r21, 0xFF	; 255

00006ad2 <__divmodsi4_exit>:
    6ad2:	08 95       	ret

00006ad4 <__negsi2>:
    6ad4:	90 95       	com	r25
    6ad6:	80 95       	com	r24
    6ad8:	70 95       	com	r23
    6ada:	61 95       	neg	r22
    6adc:	7f 4f       	sbci	r23, 0xFF	; 255
    6ade:	8f 4f       	sbci	r24, 0xFF	; 255
    6ae0:	9f 4f       	sbci	r25, 0xFF	; 255
    6ae2:	08 95       	ret

00006ae4 <__muluhisi3>:
    6ae4:	7f df       	rcall	.-258    	; 0x69e4 <__umulhisi3>
    6ae6:	a5 9f       	mul	r26, r21
    6ae8:	90 0d       	add	r25, r0
    6aea:	b4 9f       	mul	r27, r20
    6aec:	90 0d       	add	r25, r0
    6aee:	a4 9f       	mul	r26, r20
    6af0:	80 0d       	add	r24, r0
    6af2:	91 1d       	adc	r25, r1
    6af4:	11 24       	eor	r1, r1
    6af6:	08 95       	ret

00006af8 <__mulshisi3>:
    6af8:	b7 ff       	sbrs	r27, 7
    6afa:	f4 cf       	rjmp	.-24     	; 0x6ae4 <__muluhisi3>

00006afc <__mulohisi3>:
    6afc:	f3 df       	rcall	.-26     	; 0x6ae4 <__muluhisi3>
    6afe:	82 1b       	sub	r24, r18
    6b00:	93 0b       	sbc	r25, r19
    6b02:	08 95       	ret

00006b04 <__udivmodsi4>:
    6b04:	a1 e2       	ldi	r26, 0x21	; 33
    6b06:	1a 2e       	mov	r1, r26
    6b08:	aa 1b       	sub	r26, r26
    6b0a:	bb 1b       	sub	r27, r27
    6b0c:	fd 01       	movw	r30, r26
    6b0e:	0d c0       	rjmp	.+26     	; 0x6b2a <__udivmodsi4_ep>

00006b10 <__udivmodsi4_loop>:
    6b10:	aa 1f       	adc	r26, r26
    6b12:	bb 1f       	adc	r27, r27
    6b14:	ee 1f       	adc	r30, r30
    6b16:	ff 1f       	adc	r31, r31
    6b18:	a2 17       	cp	r26, r18
    6b1a:	b3 07       	cpc	r27, r19
    6b1c:	e4 07       	cpc	r30, r20
    6b1e:	f5 07       	cpc	r31, r21
    6b20:	20 f0       	brcs	.+8      	; 0x6b2a <__udivmodsi4_ep>
    6b22:	a2 1b       	sub	r26, r18
    6b24:	b3 0b       	sbc	r27, r19
    6b26:	e4 0b       	sbc	r30, r20
    6b28:	f5 0b       	sbc	r31, r21

00006b2a <__udivmodsi4_ep>:
    6b2a:	66 1f       	adc	r22, r22
    6b2c:	77 1f       	adc	r23, r23
    6b2e:	88 1f       	adc	r24, r24
    6b30:	99 1f       	adc	r25, r25
    6b32:	1a 94       	dec	r1
    6b34:	69 f7       	brne	.-38     	; 0x6b10 <__udivmodsi4_loop>
    6b36:	60 95       	com	r22
    6b38:	70 95       	com	r23
    6b3a:	80 95       	com	r24
    6b3c:	90 95       	com	r25
    6b3e:	9b 01       	movw	r18, r22
    6b40:	ac 01       	movw	r20, r24
    6b42:	bd 01       	movw	r22, r26
    6b44:	cf 01       	movw	r24, r30
    6b46:	08 95       	ret

00006b48 <_exit>:
    6b48:	f8 94       	cli

00006b4a <__stop_program>:
    6b4a:	ff cf       	rjmp	.-2      	; 0x6b4a <__stop_program>
